ARM GAS  /var/folders/cb/0rfcg7_d4zbdkgdchwlcykcc0000gn/T//ccr0omsD.s 			page 1


   1              		.cpu cortex-m4
   2              		.eabi_attribute 27, 1
   3              		.eabi_attribute 28, 1
   4              		.eabi_attribute 20, 1
   5              		.eabi_attribute 21, 1
   6              		.eabi_attribute 23, 3
   7              		.eabi_attribute 24, 1
   8              		.eabi_attribute 25, 1
   9              		.eabi_attribute 26, 1
  10              		.eabi_attribute 30, 1
  11              		.eabi_attribute 34, 1
  12              		.eabi_attribute 18, 4
  13              		.file	"bsp_TIMIN.c"
  14              		.text
  15              	.Ltext0:
  16              		.cfi_sections	.debug_frame
  17              		.section	.text.HAL_TIM_IC_CaptureCallback,"ax",%progbits
  18              		.align	1
  19              		.global	HAL_TIM_IC_CaptureCallback
  20              		.arch armv7e-m
  21              		.syntax unified
  22              		.thumb
  23              		.thumb_func
  24              		.fpu fpv4-sp-d16
  26              	HAL_TIM_IC_CaptureCallback:
  27              	.LVL0:
  28              	.LFB133:
  29              		.file 1 "USER/BSP/Src/bsp_TIMIN.c"
   1:USER/BSP/Src/bsp_TIMIN.c **** #include "bsp_TIMIN.h"
   2:USER/BSP/Src/bsp_TIMIN.c **** /**
   3:USER/BSP/Src/bsp_TIMIN.c ****  * @brief Êï∞ÊçÆÂ≠òÂÇ®ÁªìÊûÑ
   4:USER/BSP/Src/bsp_TIMIN.c ****  * 
   5:USER/BSP/Src/bsp_TIMIN.c ****  */
   6:USER/BSP/Src/bsp_TIMIN.c **** extern int  capture_Buf[4][2]; //Â≠òÊîæËÆ°Êï∞ÂÄº
   7:USER/BSP/Src/bsp_TIMIN.c **** extern int  capture_Cnt[4] ;//Áä∂ÊÄÅÊ†áÂøó‰Ωç
   8:USER/BSP/Src/bsp_TIMIN.c **** extern int  high_time[4]; //È´òÁîµÂπ≥Êó∂Èó¥
   9:USER/BSP/Src/bsp_TIMIN.c **** extern  TIM_HandleTypeDef htim1;
  10:USER/BSP/Src/bsp_TIMIN.c **** 
  11:USER/BSP/Src/bsp_TIMIN.c **** 
  12:USER/BSP/Src/bsp_TIMIN.c **** 
  13:USER/BSP/Src/bsp_TIMIN.c **** /**
  14:USER/BSP/Src/bsp_TIMIN.c ****  * @brief TIMÊçïËé∑‰∏≠ÈúÄË¶ÅÂú®Task‰∏≠‰ΩøÁî®Êú¨ÂáΩÊï∞ÔºåÂÆåÊàêPWMÁöÑÈ´òÁîµÂπ≥Êó∂Èó¥Ëé∑Âèñ
  15:USER/BSP/Src/bsp_TIMIN.c ****  * 
  16:USER/BSP/Src/bsp_TIMIN.c ****  */
  17:USER/BSP/Src/bsp_TIMIN.c **** /*
  18:USER/BSP/Src/bsp_TIMIN.c **** void bsp_TIMIN_C(void)
  19:USER/BSP/Src/bsp_TIMIN.c **** {
  20:USER/BSP/Src/bsp_TIMIN.c ****     // Channel 1
  21:USER/BSP/Src/bsp_TIMIN.c ****     switch (capture_Cnt[0])
  22:USER/BSP/Src/bsp_TIMIN.c ****     {
  23:USER/BSP/Src/bsp_TIMIN.c **** 	    case 0:
  24:USER/BSP/Src/bsp_TIMIN.c **** 		    capture_Cnt[0]++;
  25:USER/BSP/Src/bsp_TIMIN.c ****             __HAL_TIM_SET_CAPTUREPOLARITY(&htim1, TIM_CHANNEL_1, TIM_INPUTCHANNELPOLARITY_RISING);
  26:USER/BSP/Src/bsp_TIMIN.c ****             HAL_TIM_IC_Start_IT(&htim1, TIM_CHANNEL_1);	//ÂêØÂä®ËæìÂÖ•ÊçïËé∑       ÊàñËÄÖ: __HAL_TI
  27:USER/BSP/Src/bsp_TIMIN.c **** 		    break;
  28:USER/BSP/Src/bsp_TIMIN.c **** 	    case 3:
  29:USER/BSP/Src/bsp_TIMIN.c **** 		    if(capture_Buf[0][1]>capture_Buf[0][0]){
ARM GAS  /var/folders/cb/0rfcg7_d4zbdkgdchwlcykcc0000gn/T//ccr0omsD.s 			page 2


  30:USER/BSP/Src/bsp_TIMIN.c **** 		   		high_time[0] = capture_Buf[0][1]- capture_Buf[0][0];  
  31:USER/BSP/Src/bsp_TIMIN.c **** 			}//È´òÁîµÂπ≥Êó∂Èó¥
  32:USER/BSP/Src/bsp_TIMIN.c **** 			else{
  33:USER/BSP/Src/bsp_TIMIN.c **** 				high_time[0] =capture_Buf[0][1]-capture_Buf[0][1];
  34:USER/BSP/Src/bsp_TIMIN.c **** 			}
  35:USER/BSP/Src/bsp_TIMIN.c **** 		    capture_Cnt[0] = 0;  //Ê∏ÖÁ©∫Ê†áÂøó‰Ωç
  36:USER/BSP/Src/bsp_TIMIN.c **** 			break;
  37:USER/BSP/Src/bsp_TIMIN.c ****     }
  38:USER/BSP/Src/bsp_TIMIN.c **** 
  39:USER/BSP/Src/bsp_TIMIN.c ****     // // Channel 2
  40:USER/BSP/Src/bsp_TIMIN.c ****     // switch (capture_Cnt[1])
  41:USER/BSP/Src/bsp_TIMIN.c ****     // {
  42:USER/BSP/Src/bsp_TIMIN.c **** 	//     case 0:
  43:USER/BSP/Src/bsp_TIMIN.c **** 	// 	    capture_Cnt[1]++;
  44:USER/BSP/Src/bsp_TIMIN.c ****     //         __HAL_TIM_SET_CAPTUREPOLARITY(&htim1, TIM_CHANNEL_2, TIM_INPUTCHANNELPOLARITY_RISING
  45:USER/BSP/Src/bsp_TIMIN.c ****     //         HAL_TIM_IC_Start_IT(&htim1, TIM_CHANNEL_2);	//ÂêØÂä®ËæìÂÖ•ÊçïËé∑       ÊàñËÄÖ: __HAL
  46:USER/BSP/Src/bsp_TIMIN.c **** 	// 	    break;
  47:USER/BSP/Src/bsp_TIMIN.c **** 	//     case 3:
  48:USER/BSP/Src/bsp_TIMIN.c **** 	// 	//    if(capture_Buf[1][1]>capture_Buf[1][0])
  49:USER/BSP/Src/bsp_TIMIN.c **** 	// 	   		high_time[1] = capture_Buf[1][1]- capture_Buf[1][0];    //È´òÁîµÂπ≥Êó∂Èó¥
  50:USER/BSP/Src/bsp_TIMIN.c **** 	// 		capture_Buf[1][0]=capture_Buf[1][1]=0;
  51:USER/BSP/Src/bsp_TIMIN.c **** 	// 	    capture_Cnt[1] = 0;  //Ê∏ÖÁ©∫Ê†áÂøó‰Ωç
  52:USER/BSP/Src/bsp_TIMIN.c **** 	// 		break;
  53:USER/BSP/Src/bsp_TIMIN.c ****     // }
  54:USER/BSP/Src/bsp_TIMIN.c **** 
  55:USER/BSP/Src/bsp_TIMIN.c ****     // // Channel 3
  56:USER/BSP/Src/bsp_TIMIN.c ****     // switch (capture_Cnt[2])
  57:USER/BSP/Src/bsp_TIMIN.c ****     // {
  58:USER/BSP/Src/bsp_TIMIN.c **** 	//     case 0:
  59:USER/BSP/Src/bsp_TIMIN.c **** 	// 	    capture_Cnt[2]++;
  60:USER/BSP/Src/bsp_TIMIN.c ****     //         __HAL_TIM_SET_CAPTUREPOLARITY(&htim1, TIM_CHANNEL_3, TIM_INPUTCHANNELPOLARITY_RISING
  61:USER/BSP/Src/bsp_TIMIN.c ****     //         HAL_TIM_IC_Start_IT(&htim1, TIM_CHANNEL_3);	//ÂêØÂä®ËæìÂÖ•ÊçïËé∑       ÊàñËÄÖ: __HAL
  62:USER/BSP/Src/bsp_TIMIN.c **** 	// 	    break;
  63:USER/BSP/Src/bsp_TIMIN.c **** 	//     case 3:
  64:USER/BSP/Src/bsp_TIMIN.c **** 	// 	//	if(capture_Buf[2][1]>capture_Buf[2][0])
  65:USER/BSP/Src/bsp_TIMIN.c **** 	// 	   		high_time[2] = capture_Buf[2][1]- capture_Buf[2][0];    //È´òÁîµÂπ≥Êó∂Èó¥
  66:USER/BSP/Src/bsp_TIMIN.c **** 	// 		capture_Buf[2][1]=capture_Buf[2][0]=0;
  67:USER/BSP/Src/bsp_TIMIN.c **** 	// 	    capture_Cnt[2] = 0;  //Ê∏ÖÁ©∫Ê†áÂøó‰Ωç
  68:USER/BSP/Src/bsp_TIMIN.c **** 	// 		break;
  69:USER/BSP/Src/bsp_TIMIN.c ****     // }
  70:USER/BSP/Src/bsp_TIMIN.c ****     
  71:USER/BSP/Src/bsp_TIMIN.c ****     // // Channel 4
  72:USER/BSP/Src/bsp_TIMIN.c ****     // switch (capture_Cnt[3])
  73:USER/BSP/Src/bsp_TIMIN.c ****     // {
  74:USER/BSP/Src/bsp_TIMIN.c **** 	//     case 0:
  75:USER/BSP/Src/bsp_TIMIN.c **** 	// 	    capture_Cnt[3]++;
  76:USER/BSP/Src/bsp_TIMIN.c ****     //         __HAL_TIM_SET_CAPTUREPOLARITY(&htim1, TIM_CHANNEL_4, TIM_INPUTCHANNELPOLARITY_RISING
  77:USER/BSP/Src/bsp_TIMIN.c ****     //         HAL_TIM_IC_Start_IT(&htim1, TIM_CHANNEL_4);	//ÂêØÂä®ËæìÂÖ•ÊçïËé∑       ÊàñËÄÖ: __HAL
  78:USER/BSP/Src/bsp_TIMIN.c **** 	// 	    break;
  79:USER/BSP/Src/bsp_TIMIN.c **** 	//     case 3:
  80:USER/BSP/Src/bsp_TIMIN.c **** 	// 	  //  if(capture_Buf[3][1]>capture_Buf[3][0])
  81:USER/BSP/Src/bsp_TIMIN.c **** 	// 	   		high_time[3] = capture_Buf[3][1]- capture_Buf[3][0];   
  82:USER/BSP/Src/bsp_TIMIN.c **** 	// 			    //È´òÁîµÂπ≥Êó∂Èó¥
  83:USER/BSP/Src/bsp_TIMIN.c **** 	// 		capture_Buf[3][1]=capture_Buf[3][0]=0;
  84:USER/BSP/Src/bsp_TIMIN.c **** 	// 	    capture_Cnt[3] = 0;  //Ê∏ÖÁ©∫Ê†áÂøó‰Ωç
  85:USER/BSP/Src/bsp_TIMIN.c **** 	// 		break;
  86:USER/BSP/Src/bsp_TIMIN.c ****     // }
ARM GAS  /var/folders/cb/0rfcg7_d4zbdkgdchwlcykcc0000gn/T//ccr0omsD.s 			page 3


  87:USER/BSP/Src/bsp_TIMIN.c **** 
  88:USER/BSP/Src/bsp_TIMIN.c **** 
  89:USER/BSP/Src/bsp_TIMIN.c **** 
  90:USER/BSP/Src/bsp_TIMIN.c **** 
  91:USER/BSP/Src/bsp_TIMIN.c **** }
  92:USER/BSP/Src/bsp_TIMIN.c **** */
  93:USER/BSP/Src/bsp_TIMIN.c **** 
  94:USER/BSP/Src/bsp_TIMIN.c **** 
  95:USER/BSP/Src/bsp_TIMIN.c **** 
  96:USER/BSP/Src/bsp_TIMIN.c **** 
  97:USER/BSP/Src/bsp_TIMIN.c **** 
  98:USER/BSP/Src/bsp_TIMIN.c **** 
  99:USER/BSP/Src/bsp_TIMIN.c **** 
 100:USER/BSP/Src/bsp_TIMIN.c **** 
 101:USER/BSP/Src/bsp_TIMIN.c **** 
 102:USER/BSP/Src/bsp_TIMIN.c **** 
 103:USER/BSP/Src/bsp_TIMIN.c **** 
 104:USER/BSP/Src/bsp_TIMIN.c **** 
 105:USER/BSP/Src/bsp_TIMIN.c **** 
 106:USER/BSP/Src/bsp_TIMIN.c **** 
 107:USER/BSP/Src/bsp_TIMIN.c **** 
 108:USER/BSP/Src/bsp_TIMIN.c **** /**
 109:USER/BSP/Src/bsp_TIMIN.c ****  * @brief ÂáΩÊï∞ÊòØÂú®‰∏≠Êñ≠ÊúçÂä°ÂáΩÊï∞‰∏≠Ë¢´Ë∞ÉÁî®ÔºåËΩ¨Êç¢‰∏≠Êñ≠Ëß¶ÂèëÊù°‰ª∂
 110:USER/BSP/Src/bsp_TIMIN.c ****  * 
 111:USER/BSP/Src/bsp_TIMIN.c ****  * @param htim 
 112:USER/BSP/Src/bsp_TIMIN.c ****  */
 113:USER/BSP/Src/bsp_TIMIN.c **** 
 114:USER/BSP/Src/bsp_TIMIN.c **** void HAL_TIM_IC_CaptureCallback(TIM_HandleTypeDef *htim)
 115:USER/BSP/Src/bsp_TIMIN.c **** {
  30              		.loc 1 115 1 view -0
  31              		.cfi_startproc
  32              		@ args = 0, pretend = 0, frame = 0
  33              		@ frame_needed = 0, uses_anonymous_args = 0
  34              		.loc 1 115 1 is_stmt 0 view .LVU1
  35 0000 38B5     		push	{r3, r4, r5, lr}
  36              	.LCFI0:
  37              		.cfi_def_cfa_offset 16
  38              		.cfi_offset 3, -16
  39              		.cfi_offset 4, -12
  40              		.cfi_offset 5, -8
  41              		.cfi_offset 14, -4
 116:USER/BSP/Src/bsp_TIMIN.c **** 	if(TIM1 == htim->Instance)
  42              		.loc 1 116 2 is_stmt 1 view .LVU2
  43              		.loc 1 116 17 is_stmt 0 view .LVU3
  44 0002 0268     		ldr	r2, [r0]
  45              		.loc 1 116 4 view .LVU4
  46 0004 3B4B     		ldr	r3, .L10
  47 0006 9A42     		cmp	r2, r3
  48 0008 00D0     		beq	.L9
  49              	.LVL1:
  50              	.L1:
 117:USER/BSP/Src/bsp_TIMIN.c **** 	{   
 118:USER/BSP/Src/bsp_TIMIN.c ****     //Channel 1 caputure interrupt
 119:USER/BSP/Src/bsp_TIMIN.c **** 		switch(capture_Cnt[0]){
 120:USER/BSP/Src/bsp_TIMIN.c **** 			case 0:
 121:USER/BSP/Src/bsp_TIMIN.c **** 				capture_Buf[0][0] = HAL_TIM_ReadCapturedValue(&htim1,TIM_CHANNEL_1);//Ëé∑ÂèñÂΩìÂâçÁöÑÊçïËé∑ÂÄº.
 122:USER/BSP/Src/bsp_TIMIN.c **** 				__HAL_TIM_SET_CAPTUREPOLARITY(&htim1,TIM_CHANNEL_1,TIM_ICPOLARITY_FALLING);  //ËÆæÁΩÆ‰∏∫‰∏ãÈôçÊ
ARM GAS  /var/folders/cb/0rfcg7_d4zbdkgdchwlcykcc0000gn/T//ccr0omsD.s 			page 4


 123:USER/BSP/Src/bsp_TIMIN.c **** 				capture_Cnt[0]++;
 124:USER/BSP/Src/bsp_TIMIN.c **** 				break;
 125:USER/BSP/Src/bsp_TIMIN.c **** 			case 1:
 126:USER/BSP/Src/bsp_TIMIN.c **** 				capture_Buf[0][1] = HAL_TIM_ReadCapturedValue(&htim1,TIM_CHANNEL_1);//Ëé∑ÂèñÂΩìÂâçÁöÑÊçïËé∑ÂÄº.
 127:USER/BSP/Src/bsp_TIMIN.c **** 				HAL_TIM_IC_Stop_IT(&htim1,TIM_CHANNEL_1); //ÂÅúÊ≠¢ÊçïËé∑ ;
 128:USER/BSP/Src/bsp_TIMIN.c **** 				high_time[0] = capture_Buf[0][1]- capture_Buf[0][0];
 129:USER/BSP/Src/bsp_TIMIN.c **** 				__HAL_TIM_SET_CAPTUREPOLARITY(&htim1,TIM_CHANNEL_1,TIM_ICPOLARITY_RISING); 
 130:USER/BSP/Src/bsp_TIMIN.c **** 				HAL_TIM_IC_Start_IT(&htim1, TIM_CHANNEL_1);	//ÂêØÂä®ËæìÂÖ•ÊçïËé∑       ÊàñËÄÖ: __HAL_TIM_ENABLE
 131:USER/BSP/Src/bsp_TIMIN.c **** 				capture_Cnt[0] = 0;
 132:USER/BSP/Src/bsp_TIMIN.c **** 				break; 
 133:USER/BSP/Src/bsp_TIMIN.c **** 		}
 134:USER/BSP/Src/bsp_TIMIN.c **** 	
 135:USER/BSP/Src/bsp_TIMIN.c **** /*
 136:USER/BSP/Src/bsp_TIMIN.c ****     // Channel 2 caputure interrupt
 137:USER/BSP/Src/bsp_TIMIN.c ****     	switch(capture_Cnt[1]){
 138:USER/BSP/Src/bsp_TIMIN.c **** 			case 0:
 139:USER/BSP/Src/bsp_TIMIN.c **** 		 		capture_Buf[1][0] = HAL_TIM_ReadCapturedValue(&htim1,TIM_CHANNEL_2);//Ëé∑ÂèñÂΩìÂâçÁöÑÊçïËé∑ÂÄº
 140:USER/BSP/Src/bsp_TIMIN.c **** 		 		__HAL_TIM_SET_CAPTUREPOLARITY(&htim1,TIM_CHANNEL_2,TIM_ICPOLARITY_FALLING);  //ËÆæÁΩÆ‰∏∫‰∏ãÈôç
 141:USER/BSP/Src/bsp_TIMIN.c **** 		 		capture_Cnt[1]++;
 142:USER/BSP/Src/bsp_TIMIN.c **** 		 		break;
 143:USER/BSP/Src/bsp_TIMIN.c **** 		 	case 1:
 144:USER/BSP/Src/bsp_TIMIN.c **** 		 		capture_Buf[1][1] = HAL_TIM_ReadCapturedValue(&htim1,TIM_CHANNEL_2);//Ëé∑ÂèñÂΩìÂâçÁöÑÊçïËé∑ÂÄº
 145:USER/BSP/Src/bsp_TIMIN.c **** 		 		HAL_TIM_IC_Stop_IT(&htim1,TIM_CHANNEL_2); //ÂÅúÊ≠¢ÊçïËé∑   ÊàñËÄÖ: __HAL_TIM_DISABLE(&htim5);
 146:USER/BSP/Src/bsp_TIMIN.c **** 		 		high_time[1] = capture_Buf[1][1]- capture_Buf[1][0];
 147:USER/BSP/Src/bsp_TIMIN.c **** 				__HAL_TIM_SET_CAPTUREPOLARITY(&htim1,TIM_CHANNEL_2,TIM_ICPOLARITY_RISING); 
 148:USER/BSP/Src/bsp_TIMIN.c **** 				HAL_TIM_IC_Start_IT(&htim1, TIM_CHANNEL_2);	//ÂêØÂä®ËæìÂÖ•ÊçïËé∑       ÊàñËÄÖ: __HAL_TIM_ENABLE
 149:USER/BSP/Src/bsp_TIMIN.c **** 				capture_Cnt[1] = 0;
 150:USER/BSP/Src/bsp_TIMIN.c **** 		 		break;
 151:USER/BSP/Src/bsp_TIMIN.c **** 		 }*/
 152:USER/BSP/Src/bsp_TIMIN.c **** 
 153:USER/BSP/Src/bsp_TIMIN.c **** /*
 154:USER/BSP/Src/bsp_TIMIN.c ****         // Channel 3 caputure interrupt
 155:USER/BSP/Src/bsp_TIMIN.c ****          switch(capture_Cnt[2]){
 156:USER/BSP/Src/bsp_TIMIN.c **** 		 	case 0:
 157:USER/BSP/Src/bsp_TIMIN.c **** 		 		capture_Buf[2][0] = HAL_TIM_ReadCapturedValue(&htim1,TIM_CHANNEL_3);//Ëé∑ÂèñÂΩìÂâçÁöÑÊçïËé∑ÂÄº
 158:USER/BSP/Src/bsp_TIMIN.c **** 		 		__HAL_TIM_SET_CAPTUREPOLARITY(&htim1,TIM_CHANNEL_3,TIM_ICPOLARITY_FALLING);  //ËÆæÁΩÆ‰∏∫‰∏ãÈôç
 159:USER/BSP/Src/bsp_TIMIN.c **** 		 		capture_Cnt[2]++;
 160:USER/BSP/Src/bsp_TIMIN.c **** 		 		break;
 161:USER/BSP/Src/bsp_TIMIN.c **** 		 	case 1:
 162:USER/BSP/Src/bsp_TIMIN.c **** 				capture_Buf[2][1] = HAL_TIM_ReadCapturedValue(&htim1,TIM_CHANNEL_3);//Ëé∑ÂèñÂΩìÂâçÁöÑÊçïËé∑ÂÄº.
 163:USER/BSP/Src/bsp_TIMIN.c **** 		 		HAL_TIM_IC_Stop_IT(&htim1,TIM_CHANNEL_3); //ÂÅúÊ≠¢ÊçïËé∑   ÊàñËÄÖ: __HAL_TIM_DISABLE(&htim5);
 164:USER/BSP/Src/bsp_TIMIN.c **** 				high_time[2] = capture_Buf[2][1]- capture_Buf[2][0];
 165:USER/BSP/Src/bsp_TIMIN.c **** 				__HAL_TIM_SET_CAPTUREPOLARITY(&htim1,TIM_CHANNEL_3,TIM_ICPOLARITY_RISING); 
 166:USER/BSP/Src/bsp_TIMIN.c **** 				HAL_TIM_IC_Start_IT(&htim1, TIM_CHANNEL_3);	//ÂêØÂä®ËæìÂÖ•ÊçïËé∑       ÊàñËÄÖ: __HAL_TIM_ENABLE
 167:USER/BSP/Src/bsp_TIMIN.c **** 				capture_Cnt[2] = 0;
 168:USER/BSP/Src/bsp_TIMIN.c **** 		 		break;   
 169:USER/BSP/Src/bsp_TIMIN.c **** 		}
 170:USER/BSP/Src/bsp_TIMIN.c **** 		*/
 171:USER/BSP/Src/bsp_TIMIN.c **** 
 172:USER/BSP/Src/bsp_TIMIN.c ****        // Channel 4 caputure interrupt
 173:USER/BSP/Src/bsp_TIMIN.c ****         	switch(capture_Cnt[3]){
 174:USER/BSP/Src/bsp_TIMIN.c **** 		 	case 0:
 175:USER/BSP/Src/bsp_TIMIN.c **** 		 		capture_Buf[3][0] = HAL_TIM_ReadCapturedValue(&htim1,TIM_CHANNEL_4);//Ëé∑ÂèñÂΩìÂâçÁöÑÊçïËé∑ÂÄº
 176:USER/BSP/Src/bsp_TIMIN.c **** 		 		__HAL_TIM_SET_CAPTUREPOLARITY(&htim1,TIM_CHANNEL_4,TIM_ICPOLARITY_FALLING);  //ËÆæÁΩÆ‰∏∫‰∏ãÈôç
 177:USER/BSP/Src/bsp_TIMIN.c **** 		 		capture_Cnt[3]++;
 178:USER/BSP/Src/bsp_TIMIN.c **** 		 		break;
 179:USER/BSP/Src/bsp_TIMIN.c **** 		 	case 1:
ARM GAS  /var/folders/cb/0rfcg7_d4zbdkgdchwlcykcc0000gn/T//ccr0omsD.s 			page 5


 180:USER/BSP/Src/bsp_TIMIN.c **** 		 		capture_Buf[3][1] = HAL_TIM_ReadCapturedValue(&htim1,TIM_CHANNEL_4);//Ëé∑ÂèñÂΩìÂâçÁöÑÊçïËé∑ÂÄº
 181:USER/BSP/Src/bsp_TIMIN.c **** 				HAL_TIM_IC_Stop_IT(&htim1,TIM_CHANNEL_4);
 182:USER/BSP/Src/bsp_TIMIN.c **** 				high_time[3] = capture_Buf[3][1]- capture_Buf[3][0];
 183:USER/BSP/Src/bsp_TIMIN.c **** 				__HAL_TIM_SET_CAPTUREPOLARITY(&htim1,TIM_CHANNEL_4,TIM_ICPOLARITY_RISING); 
 184:USER/BSP/Src/bsp_TIMIN.c **** 				HAL_TIM_IC_Start_IT(&htim1, TIM_CHANNEL_4);	//ÂêØÂä®ËæìÂÖ•ÊçïËé∑       ÊàñËÄÖ: __HAL_TIM_ENABLE
 185:USER/BSP/Src/bsp_TIMIN.c **** 				capture_Cnt[3] = 0;
 186:USER/BSP/Src/bsp_TIMIN.c **** 		 		break;    
 187:USER/BSP/Src/bsp_TIMIN.c **** 				 
 188:USER/BSP/Src/bsp_TIMIN.c **** 		 }
 189:USER/BSP/Src/bsp_TIMIN.c **** 		 
 190:USER/BSP/Src/bsp_TIMIN.c **** 
 191:USER/BSP/Src/bsp_TIMIN.c **** 	}
 192:USER/BSP/Src/bsp_TIMIN.c **** 	
 193:USER/BSP/Src/bsp_TIMIN.c **** 	
 194:USER/BSP/Src/bsp_TIMIN.c **** }
  51              		.loc 1 194 1 view .LVU5
  52 000a 38BD     		pop	{r3, r4, r5, pc}
  53              	.LVL2:
  54              	.L9:
 119:USER/BSP/Src/bsp_TIMIN.c **** 			case 0:
  55              		.loc 1 119 3 is_stmt 1 view .LVU6
 119:USER/BSP/Src/bsp_TIMIN.c **** 			case 0:
  56              		.loc 1 119 21 is_stmt 0 view .LVU7
  57 000c 3A4B     		ldr	r3, .L10+4
  58 000e 1B68     		ldr	r3, [r3]
 119:USER/BSP/Src/bsp_TIMIN.c **** 			case 0:
  59              		.loc 1 119 3 view .LVU8
  60 0010 33B3     		cbz	r3, .L3
  61 0012 012B     		cmp	r3, #1
  62 0014 39D0     		beq	.L4
  63              	.LVL3:
  64              	.L5:
 173:USER/BSP/Src/bsp_TIMIN.c **** 		 	case 0:
  65              		.loc 1 173 10 is_stmt 1 view .LVU9
 173:USER/BSP/Src/bsp_TIMIN.c **** 		 	case 0:
  66              		.loc 1 173 28 is_stmt 0 view .LVU10
  67 0016 384B     		ldr	r3, .L10+4
  68 0018 DB68     		ldr	r3, [r3, #12]
 173:USER/BSP/Src/bsp_TIMIN.c **** 		 	case 0:
  69              		.loc 1 173 10 view .LVU11
  70 001a 002B     		cmp	r3, #0
  71 001c 54D0     		beq	.L6
  72 001e 012B     		cmp	r3, #1
  73 0020 F3D1     		bne	.L1
 180:USER/BSP/Src/bsp_TIMIN.c **** 				HAL_TIM_IC_Stop_IT(&htim1,TIM_CHANNEL_4);
  74              		.loc 1 180 6 is_stmt 1 view .LVU12
 180:USER/BSP/Src/bsp_TIMIN.c **** 				HAL_TIM_IC_Stop_IT(&htim1,TIM_CHANNEL_4);
  75              		.loc 1 180 26 is_stmt 0 view .LVU13
  76 0022 364C     		ldr	r4, .L10+8
  77 0024 0C21     		movs	r1, #12
  78 0026 2046     		mov	r0, r4
  79 0028 FFF7FEFF 		bl	HAL_TIM_ReadCapturedValue
  80              	.LVL4:
 180:USER/BSP/Src/bsp_TIMIN.c **** 				HAL_TIM_IC_Stop_IT(&htim1,TIM_CHANNEL_4);
  81              		.loc 1 180 24 view .LVU14
  82 002c 344D     		ldr	r5, .L10+12
  83 002e E861     		str	r0, [r5, #28]
ARM GAS  /var/folders/cb/0rfcg7_d4zbdkgdchwlcykcc0000gn/T//ccr0omsD.s 			page 6


 181:USER/BSP/Src/bsp_TIMIN.c **** 				high_time[3] = capture_Buf[3][1]- capture_Buf[3][0];
  84              		.loc 1 181 5 is_stmt 1 view .LVU15
  85 0030 0C21     		movs	r1, #12
  86 0032 2046     		mov	r0, r4
  87 0034 FFF7FEFF 		bl	HAL_TIM_IC_Stop_IT
  88              	.LVL5:
 182:USER/BSP/Src/bsp_TIMIN.c **** 				__HAL_TIM_SET_CAPTUREPOLARITY(&htim1,TIM_CHANNEL_4,TIM_ICPOLARITY_RISING); 
  89              		.loc 1 182 5 view .LVU16
 182:USER/BSP/Src/bsp_TIMIN.c **** 				__HAL_TIM_SET_CAPTUREPOLARITY(&htim1,TIM_CHANNEL_4,TIM_ICPOLARITY_RISING); 
  90              		.loc 1 182 34 is_stmt 0 view .LVU17
  91 0038 EB69     		ldr	r3, [r5, #28]
 182:USER/BSP/Src/bsp_TIMIN.c **** 				__HAL_TIM_SET_CAPTUREPOLARITY(&htim1,TIM_CHANNEL_4,TIM_ICPOLARITY_RISING); 
  92              		.loc 1 182 53 view .LVU18
  93 003a AA69     		ldr	r2, [r5, #24]
 182:USER/BSP/Src/bsp_TIMIN.c **** 				__HAL_TIM_SET_CAPTUREPOLARITY(&htim1,TIM_CHANNEL_4,TIM_ICPOLARITY_RISING); 
  94              		.loc 1 182 37 view .LVU19
  95 003c 9B1A     		subs	r3, r3, r2
 182:USER/BSP/Src/bsp_TIMIN.c **** 				__HAL_TIM_SET_CAPTUREPOLARITY(&htim1,TIM_CHANNEL_4,TIM_ICPOLARITY_RISING); 
  96              		.loc 1 182 18 view .LVU20
  97 003e 314A     		ldr	r2, .L10+16
  98 0040 D360     		str	r3, [r2, #12]
 183:USER/BSP/Src/bsp_TIMIN.c **** 				HAL_TIM_IC_Start_IT(&htim1, TIM_CHANNEL_4);	//ÂêØÂä®ËæìÂÖ•ÊçïËé∑       ÊàñËÄÖ: __HAL_TIM_ENABLE
  99              		.loc 1 183 5 is_stmt 1 view .LVU21
 183:USER/BSP/Src/bsp_TIMIN.c **** 				HAL_TIM_IC_Start_IT(&htim1, TIM_CHANNEL_4);	//ÂêØÂä®ËæìÂÖ•ÊçïËé∑       ÊàñËÄÖ: __HAL_TIM_ENABLE
 100              		.loc 1 183 5 view .LVU22
 101 0042 2368     		ldr	r3, [r4]
 102 0044 1A6A     		ldr	r2, [r3, #32]
 103 0046 22F42042 		bic	r2, r2, #40960
 104 004a 1A62     		str	r2, [r3, #32]
 183:USER/BSP/Src/bsp_TIMIN.c **** 				HAL_TIM_IC_Start_IT(&htim1, TIM_CHANNEL_4);	//ÂêØÂä®ËæìÂÖ•ÊçïËé∑       ÊàñËÄÖ: __HAL_TIM_ENABLE
 105              		.loc 1 183 5 view .LVU23
 106 004c 1A6A     		ldr	r2, [r3, #32]
 107 004e 1A62     		str	r2, [r3, #32]
 183:USER/BSP/Src/bsp_TIMIN.c **** 				HAL_TIM_IC_Start_IT(&htim1, TIM_CHANNEL_4);	//ÂêØÂä®ËæìÂÖ•ÊçïËé∑       ÊàñËÄÖ: __HAL_TIM_ENABLE
 108              		.loc 1 183 5 view .LVU24
 184:USER/BSP/Src/bsp_TIMIN.c **** 				capture_Cnt[3] = 0;
 109              		.loc 1 184 5 view .LVU25
 110 0050 0C21     		movs	r1, #12
 111 0052 2046     		mov	r0, r4
 112 0054 FFF7FEFF 		bl	HAL_TIM_IC_Start_IT
 113              	.LVL6:
 185:USER/BSP/Src/bsp_TIMIN.c **** 		 		break;    
 114              		.loc 1 185 5 view .LVU26
 185:USER/BSP/Src/bsp_TIMIN.c **** 		 		break;    
 115              		.loc 1 185 20 is_stmt 0 view .LVU27
 116 0058 274B     		ldr	r3, .L10+4
 117 005a 0022     		movs	r2, #0
 118 005c DA60     		str	r2, [r3, #12]
 186:USER/BSP/Src/bsp_TIMIN.c **** 				 
 119              		.loc 1 186 6 is_stmt 1 view .LVU28
 120              		.loc 1 194 1 is_stmt 0 view .LVU29
 121 005e D4E7     		b	.L1
 122              	.LVL7:
 123              	.L3:
 121:USER/BSP/Src/bsp_TIMIN.c **** 				__HAL_TIM_SET_CAPTUREPOLARITY(&htim1,TIM_CHANNEL_1,TIM_ICPOLARITY_FALLING);  //ËÆæÁΩÆ‰∏∫‰∏ãÈôçÊ
 124              		.loc 1 121 5 is_stmt 1 view .LVU30
 121:USER/BSP/Src/bsp_TIMIN.c **** 				__HAL_TIM_SET_CAPTUREPOLARITY(&htim1,TIM_CHANNEL_1,TIM_ICPOLARITY_FALLING);  //ËÆæÁΩÆ‰∏∫‰∏ãÈôçÊ
ARM GAS  /var/folders/cb/0rfcg7_d4zbdkgdchwlcykcc0000gn/T//ccr0omsD.s 			page 7


 125              		.loc 1 121 25 is_stmt 0 view .LVU31
 126 0060 264C     		ldr	r4, .L10+8
 127 0062 0021     		movs	r1, #0
 128 0064 2046     		mov	r0, r4
 129              	.LVL8:
 121:USER/BSP/Src/bsp_TIMIN.c **** 				__HAL_TIM_SET_CAPTUREPOLARITY(&htim1,TIM_CHANNEL_1,TIM_ICPOLARITY_FALLING);  //ËÆæÁΩÆ‰∏∫‰∏ãÈôçÊ
 130              		.loc 1 121 25 view .LVU32
 131 0066 FFF7FEFF 		bl	HAL_TIM_ReadCapturedValue
 132              	.LVL9:
 121:USER/BSP/Src/bsp_TIMIN.c **** 				__HAL_TIM_SET_CAPTUREPOLARITY(&htim1,TIM_CHANNEL_1,TIM_ICPOLARITY_FALLING);  //ËÆæÁΩÆ‰∏∫‰∏ãÈôçÊ
 133              		.loc 1 121 23 view .LVU33
 134 006a 254B     		ldr	r3, .L10+12
 135 006c 1860     		str	r0, [r3]
 122:USER/BSP/Src/bsp_TIMIN.c **** 				capture_Cnt[0]++;
 136              		.loc 1 122 5 is_stmt 1 view .LVU34
 122:USER/BSP/Src/bsp_TIMIN.c **** 				capture_Cnt[0]++;
 137              		.loc 1 122 5 view .LVU35
 138 006e 2368     		ldr	r3, [r4]
 139 0070 1A6A     		ldr	r2, [r3, #32]
 140 0072 22F00A02 		bic	r2, r2, #10
 141 0076 1A62     		str	r2, [r3, #32]
 122:USER/BSP/Src/bsp_TIMIN.c **** 				capture_Cnt[0]++;
 142              		.loc 1 122 5 view .LVU36
 143 0078 1A6A     		ldr	r2, [r3, #32]
 144 007a 42F00202 		orr	r2, r2, #2
 145 007e 1A62     		str	r2, [r3, #32]
 122:USER/BSP/Src/bsp_TIMIN.c **** 				capture_Cnt[0]++;
 146              		.loc 1 122 5 view .LVU37
 123:USER/BSP/Src/bsp_TIMIN.c **** 				break;
 147              		.loc 1 123 5 view .LVU38
 123:USER/BSP/Src/bsp_TIMIN.c **** 				break;
 148              		.loc 1 123 16 is_stmt 0 view .LVU39
 149 0080 1D4A     		ldr	r2, .L10+4
 150 0082 1368     		ldr	r3, [r2]
 123:USER/BSP/Src/bsp_TIMIN.c **** 				break;
 151              		.loc 1 123 19 view .LVU40
 152 0084 0133     		adds	r3, r3, #1
 153 0086 1360     		str	r3, [r2]
 124:USER/BSP/Src/bsp_TIMIN.c **** 			case 1:
 154              		.loc 1 124 5 is_stmt 1 view .LVU41
 155 0088 C5E7     		b	.L5
 156              	.LVL10:
 157              	.L4:
 126:USER/BSP/Src/bsp_TIMIN.c **** 				HAL_TIM_IC_Stop_IT(&htim1,TIM_CHANNEL_1); //ÂÅúÊ≠¢ÊçïËé∑ ;
 158              		.loc 1 126 5 view .LVU42
 126:USER/BSP/Src/bsp_TIMIN.c **** 				HAL_TIM_IC_Stop_IT(&htim1,TIM_CHANNEL_1); //ÂÅúÊ≠¢ÊçïËé∑ ;
 159              		.loc 1 126 25 is_stmt 0 view .LVU43
 160 008a 1C4C     		ldr	r4, .L10+8
 161 008c 0021     		movs	r1, #0
 162 008e 2046     		mov	r0, r4
 163              	.LVL11:
 126:USER/BSP/Src/bsp_TIMIN.c **** 				HAL_TIM_IC_Stop_IT(&htim1,TIM_CHANNEL_1); //ÂÅúÊ≠¢ÊçïËé∑ ;
 164              		.loc 1 126 25 view .LVU44
 165 0090 FFF7FEFF 		bl	HAL_TIM_ReadCapturedValue
 166              	.LVL12:
 126:USER/BSP/Src/bsp_TIMIN.c **** 				HAL_TIM_IC_Stop_IT(&htim1,TIM_CHANNEL_1); //ÂÅúÊ≠¢ÊçïËé∑ ;
 167              		.loc 1 126 23 view .LVU45
ARM GAS  /var/folders/cb/0rfcg7_d4zbdkgdchwlcykcc0000gn/T//ccr0omsD.s 			page 8


 168 0094 1A4D     		ldr	r5, .L10+12
 169 0096 6860     		str	r0, [r5, #4]
 127:USER/BSP/Src/bsp_TIMIN.c **** 				high_time[0] = capture_Buf[0][1]- capture_Buf[0][0];
 170              		.loc 1 127 5 is_stmt 1 view .LVU46
 171 0098 0021     		movs	r1, #0
 172 009a 2046     		mov	r0, r4
 173 009c FFF7FEFF 		bl	HAL_TIM_IC_Stop_IT
 174              	.LVL13:
 128:USER/BSP/Src/bsp_TIMIN.c **** 				__HAL_TIM_SET_CAPTUREPOLARITY(&htim1,TIM_CHANNEL_1,TIM_ICPOLARITY_RISING); 
 175              		.loc 1 128 5 view .LVU47
 128:USER/BSP/Src/bsp_TIMIN.c **** 				__HAL_TIM_SET_CAPTUREPOLARITY(&htim1,TIM_CHANNEL_1,TIM_ICPOLARITY_RISING); 
 176              		.loc 1 128 34 is_stmt 0 view .LVU48
 177 00a0 6B68     		ldr	r3, [r5, #4]
 128:USER/BSP/Src/bsp_TIMIN.c **** 				__HAL_TIM_SET_CAPTUREPOLARITY(&htim1,TIM_CHANNEL_1,TIM_ICPOLARITY_RISING); 
 178              		.loc 1 128 53 view .LVU49
 179 00a2 2A68     		ldr	r2, [r5]
 128:USER/BSP/Src/bsp_TIMIN.c **** 				__HAL_TIM_SET_CAPTUREPOLARITY(&htim1,TIM_CHANNEL_1,TIM_ICPOLARITY_RISING); 
 180              		.loc 1 128 37 view .LVU50
 181 00a4 9B1A     		subs	r3, r3, r2
 128:USER/BSP/Src/bsp_TIMIN.c **** 				__HAL_TIM_SET_CAPTUREPOLARITY(&htim1,TIM_CHANNEL_1,TIM_ICPOLARITY_RISING); 
 182              		.loc 1 128 18 view .LVU51
 183 00a6 174A     		ldr	r2, .L10+16
 184 00a8 1360     		str	r3, [r2]
 129:USER/BSP/Src/bsp_TIMIN.c **** 				HAL_TIM_IC_Start_IT(&htim1, TIM_CHANNEL_1);	//ÂêØÂä®ËæìÂÖ•ÊçïËé∑       ÊàñËÄÖ: __HAL_TIM_ENABLE
 185              		.loc 1 129 5 is_stmt 1 view .LVU52
 129:USER/BSP/Src/bsp_TIMIN.c **** 				HAL_TIM_IC_Start_IT(&htim1, TIM_CHANNEL_1);	//ÂêØÂä®ËæìÂÖ•ÊçïËé∑       ÊàñËÄÖ: __HAL_TIM_ENABLE
 186              		.loc 1 129 5 view .LVU53
 187 00aa 2368     		ldr	r3, [r4]
 188 00ac 1A6A     		ldr	r2, [r3, #32]
 189 00ae 22F00A02 		bic	r2, r2, #10
 190 00b2 1A62     		str	r2, [r3, #32]
 129:USER/BSP/Src/bsp_TIMIN.c **** 				HAL_TIM_IC_Start_IT(&htim1, TIM_CHANNEL_1);	//ÂêØÂä®ËæìÂÖ•ÊçïËé∑       ÊàñËÄÖ: __HAL_TIM_ENABLE
 191              		.loc 1 129 5 view .LVU54
 192 00b4 1A6A     		ldr	r2, [r3, #32]
 193 00b6 1A62     		str	r2, [r3, #32]
 129:USER/BSP/Src/bsp_TIMIN.c **** 				HAL_TIM_IC_Start_IT(&htim1, TIM_CHANNEL_1);	//ÂêØÂä®ËæìÂÖ•ÊçïËé∑       ÊàñËÄÖ: __HAL_TIM_ENABLE
 194              		.loc 1 129 5 view .LVU55
 130:USER/BSP/Src/bsp_TIMIN.c **** 				capture_Cnt[0] = 0;
 195              		.loc 1 130 5 view .LVU56
 196 00b8 0021     		movs	r1, #0
 197 00ba 2046     		mov	r0, r4
 198 00bc FFF7FEFF 		bl	HAL_TIM_IC_Start_IT
 199              	.LVL14:
 131:USER/BSP/Src/bsp_TIMIN.c **** 				break; 
 200              		.loc 1 131 5 view .LVU57
 131:USER/BSP/Src/bsp_TIMIN.c **** 				break; 
 201              		.loc 1 131 20 is_stmt 0 view .LVU58
 202 00c0 0D4B     		ldr	r3, .L10+4
 203 00c2 0022     		movs	r2, #0
 204 00c4 1A60     		str	r2, [r3]
 132:USER/BSP/Src/bsp_TIMIN.c **** 		}
 205              		.loc 1 132 5 is_stmt 1 view .LVU59
 206 00c6 A6E7     		b	.L5
 207              	.L6:
 175:USER/BSP/Src/bsp_TIMIN.c **** 		 		__HAL_TIM_SET_CAPTUREPOLARITY(&htim1,TIM_CHANNEL_4,TIM_ICPOLARITY_FALLING);  //ËÆæÁΩÆ‰∏∫‰∏ãÈôç
 208              		.loc 1 175 6 view .LVU60
 175:USER/BSP/Src/bsp_TIMIN.c **** 		 		__HAL_TIM_SET_CAPTUREPOLARITY(&htim1,TIM_CHANNEL_4,TIM_ICPOLARITY_FALLING);  //ËÆæÁΩÆ‰∏∫‰∏ãÈôç
ARM GAS  /var/folders/cb/0rfcg7_d4zbdkgdchwlcykcc0000gn/T//ccr0omsD.s 			page 9


 209              		.loc 1 175 26 is_stmt 0 view .LVU61
 210 00c8 0C4C     		ldr	r4, .L10+8
 211 00ca 0C21     		movs	r1, #12
 212 00cc 2046     		mov	r0, r4
 213 00ce FFF7FEFF 		bl	HAL_TIM_ReadCapturedValue
 214              	.LVL15:
 175:USER/BSP/Src/bsp_TIMIN.c **** 		 		__HAL_TIM_SET_CAPTUREPOLARITY(&htim1,TIM_CHANNEL_4,TIM_ICPOLARITY_FALLING);  //ËÆæÁΩÆ‰∏∫‰∏ãÈôç
 215              		.loc 1 175 24 view .LVU62
 216 00d2 0B4B     		ldr	r3, .L10+12
 217 00d4 9861     		str	r0, [r3, #24]
 176:USER/BSP/Src/bsp_TIMIN.c **** 		 		capture_Cnt[3]++;
 218              		.loc 1 176 6 is_stmt 1 view .LVU63
 176:USER/BSP/Src/bsp_TIMIN.c **** 		 		capture_Cnt[3]++;
 219              		.loc 1 176 6 view .LVU64
 220 00d6 2368     		ldr	r3, [r4]
 221 00d8 1A6A     		ldr	r2, [r3, #32]
 222 00da 22F42042 		bic	r2, r2, #40960
 223 00de 1A62     		str	r2, [r3, #32]
 176:USER/BSP/Src/bsp_TIMIN.c **** 		 		capture_Cnt[3]++;
 224              		.loc 1 176 6 view .LVU65
 225 00e0 1A6A     		ldr	r2, [r3, #32]
 226 00e2 42F40052 		orr	r2, r2, #8192
 227 00e6 1A62     		str	r2, [r3, #32]
 176:USER/BSP/Src/bsp_TIMIN.c **** 		 		capture_Cnt[3]++;
 228              		.loc 1 176 6 view .LVU66
 177:USER/BSP/Src/bsp_TIMIN.c **** 		 		break;
 229              		.loc 1 177 6 view .LVU67
 177:USER/BSP/Src/bsp_TIMIN.c **** 		 		break;
 230              		.loc 1 177 17 is_stmt 0 view .LVU68
 231 00e8 034A     		ldr	r2, .L10+4
 232 00ea D368     		ldr	r3, [r2, #12]
 177:USER/BSP/Src/bsp_TIMIN.c **** 		 		break;
 233              		.loc 1 177 20 view .LVU69
 234 00ec 0133     		adds	r3, r3, #1
 235 00ee D360     		str	r3, [r2, #12]
 178:USER/BSP/Src/bsp_TIMIN.c **** 		 	case 1:
 236              		.loc 1 178 6 is_stmt 1 view .LVU70
 237 00f0 8BE7     		b	.L1
 238              	.L11:
 239 00f2 00BF     		.align	2
 240              	.L10:
 241 00f4 00000140 		.word	1073807360
 242 00f8 00000000 		.word	capture_Cnt
 243 00fc 00000000 		.word	htim1
 244 0100 00000000 		.word	capture_Buf
 245 0104 00000000 		.word	high_time
 246              		.cfi_endproc
 247              	.LFE133:
 249              		.text
 250              	.Letext0:
 251              		.file 2 "/Applications/ARM/arm-none-eabi/include/machine/_default_types.h"
 252              		.file 3 "/Applications/ARM/arm-none-eabi/include/sys/_stdint.h"
 253              		.file 4 "Drivers/CMSIS/Include/core_cm4.h"
 254              		.file 5 "Drivers/CMSIS/Device/ST/STM32F4xx/Include/system_stm32f4xx.h"
 255              		.file 6 "Drivers/CMSIS/Device/ST/STM32F4xx/Include/stm32f407xx.h"
 256              		.file 7 "Drivers/STM32F4xx_HAL_Driver/Inc/stm32f4xx_hal_def.h"
 257              		.file 8 "Drivers/STM32F4xx_HAL_Driver/Inc/stm32f4xx_hal_dma.h"
ARM GAS  /var/folders/cb/0rfcg7_d4zbdkgdchwlcykcc0000gn/T//ccr0omsD.s 			page 10


 258              		.file 9 "Drivers/STM32F4xx_HAL_Driver/Inc/stm32f4xx_hal_tim.h"
 259              		.file 10 "Drivers/STM32F4xx_HAL_Driver/Inc/stm32f4xx_hal.h"
 260              		.file 11 "/Applications/ARM/lib/gcc/arm-none-eabi/9.3.1/include/stddef.h"
 261              		.file 12 "/Applications/ARM/arm-none-eabi/include/sys/_types.h"
 262              		.file 13 "/Applications/ARM/arm-none-eabi/include/sys/reent.h"
 263              		.file 14 "/Applications/ARM/arm-none-eabi/include/sys/lock.h"
ARM GAS  /var/folders/cb/0rfcg7_d4zbdkgdchwlcykcc0000gn/T//ccr0omsD.s 			page 11

