ARM GAS  /var/folders/cb/0rfcg7_d4zbdkgdchwlcykcc0000gn/T//ccKAJtwl.s 			page 1


   1              		.cpu cortex-m4
   2              		.eabi_attribute 27, 1
   3              		.eabi_attribute 28, 1
   4              		.eabi_attribute 20, 1
   5              		.eabi_attribute 21, 1
   6              		.eabi_attribute 23, 3
   7              		.eabi_attribute 24, 1
   8              		.eabi_attribute 25, 1
   9              		.eabi_attribute 26, 1
  10              		.eabi_attribute 30, 1
  11              		.eabi_attribute 34, 1
  12              		.eabi_attribute 18, 4
  13              		.file	"bsp_OLED.c"
  14              		.text
  15              	.Ltext0:
  16              		.cfi_sections	.debug_frame
  17              		.section	.text.bsp_OLED_pow,"ax",%progbits
  18              		.align	1
  19              		.global	bsp_OLED_pow
  20              		.arch armv7e-m
  21              		.syntax unified
  22              		.thumb
  23              		.thumb_func
  24              		.fpu fpv4-sp-d16
  26              	bsp_OLED_pow:
  27              	.LVL0:
  28              	.LFB141:
  29              		.file 1 "USER/BSP/Src/bsp_OLED.c"
   1:USER/BSP/Src/bsp_OLED.c **** #include "bsp_OLED.h"
   2:USER/BSP/Src/bsp_OLED.c **** #include "bsp_ascii.h"
   3:USER/BSP/Src/bsp_OLED.c **** #include "main.h"
   4:USER/BSP/Src/bsp_OLED.c **** 
   5:USER/BSP/Src/bsp_OLED.c **** extern I2C_HandleTypeDef hi2c1;
   6:USER/BSP/Src/bsp_OLED.c **** extern I2C_HandleTypeDef hi2c2;
   7:USER/BSP/Src/bsp_OLED.c **** 
   8:USER/BSP/Src/bsp_OLED.c **** /**
   9:USER/BSP/Src/bsp_OLED.c ****  * @brief 基本的两个I2C输入输出命令
  10:USER/BSP/Src/bsp_OLED.c ****  *
  11:USER/BSP/Src/bsp_OLED.c ****  * @param I2C_Command 
  12:USER/BSP/Src/bsp_OLED.c ****  * 如果需要重新定向到另外的I2C，更改两个函数的内容 hi2c2
  13:USER/BSP/Src/bsp_OLED.c ****  */
  14:USER/BSP/Src/bsp_OLED.c **** 
  15:USER/BSP/Src/bsp_OLED.c **** 
  16:USER/BSP/Src/bsp_OLED.c **** 
  17:USER/BSP/Src/bsp_OLED.c **** /**
  18:USER/BSP/Src/bsp_OLED.c ****  * @brief OLED 屏幕初始化
  19:USER/BSP/Src/bsp_OLED.c ****  * 
  20:USER/BSP/Src/bsp_OLED.c ****  */
  21:USER/BSP/Src/bsp_OLED.c **** void bsp_OLED_Init(void)
  22:USER/BSP/Src/bsp_OLED.c **** {
  23:USER/BSP/Src/bsp_OLED.c **** 	HAL_Delay(100); //这里的延时很重要
  24:USER/BSP/Src/bsp_OLED.c **** 	WriteCmd(0xAE); //display off
  25:USER/BSP/Src/bsp_OLED.c **** 	WriteCmd(0x20);	//Set Memory Addressing Mode	
  26:USER/BSP/Src/bsp_OLED.c **** 	WriteCmd(0x10);	//00,Horizontal Addressing Mode;01,Vertical Addressing Mode;10,Page Addressing Mod
  27:USER/BSP/Src/bsp_OLED.c **** 	WriteCmd(0xb0);	//Set Page Start Address for Page Addressing Mode,0-7
  28:USER/BSP/Src/bsp_OLED.c **** 	WriteCmd(0xc8);	//Set COM Output Scan Direction
  29:USER/BSP/Src/bsp_OLED.c **** 	WriteCmd(0x00); //---set low column address
ARM GAS  /var/folders/cb/0rfcg7_d4zbdkgdchwlcykcc0000gn/T//ccKAJtwl.s 			page 2


  30:USER/BSP/Src/bsp_OLED.c **** 	WriteCmd(0x10); //---set high column address
  31:USER/BSP/Src/bsp_OLED.c **** 	WriteCmd(0x40); //--set start line address
  32:USER/BSP/Src/bsp_OLED.c **** 	WriteCmd(0x81); //--set contrast control register
  33:USER/BSP/Src/bsp_OLED.c **** 	WriteCmd(0xff); //亮度调节 0x00~0xff
  34:USER/BSP/Src/bsp_OLED.c **** 	WriteCmd(0xa1); //--set segment re-map 0 to 127
  35:USER/BSP/Src/bsp_OLED.c **** 	WriteCmd(0xa6); //--set normal display
  36:USER/BSP/Src/bsp_OLED.c **** 	WriteCmd(0xa8); //--set multiplex ratio(1 to 64)
  37:USER/BSP/Src/bsp_OLED.c **** 	WriteCmd(0x3F); //
  38:USER/BSP/Src/bsp_OLED.c **** 	WriteCmd(0xa4); //0xa4,Output follows RAM content;0xa5,Output ignores RAM content
  39:USER/BSP/Src/bsp_OLED.c **** 	WriteCmd(0xd3); //-set display offset
  40:USER/BSP/Src/bsp_OLED.c **** 	WriteCmd(0x00); //-not offset
  41:USER/BSP/Src/bsp_OLED.c **** 	WriteCmd(0xd5); //--set display clock divide ratio/oscillator frequency
  42:USER/BSP/Src/bsp_OLED.c **** 	WriteCmd(0xf0); //--set divide ratio
  43:USER/BSP/Src/bsp_OLED.c **** 	WriteCmd(0xd9); //--set pre-charge period
  44:USER/BSP/Src/bsp_OLED.c **** 	WriteCmd(0x22); //
  45:USER/BSP/Src/bsp_OLED.c **** 	WriteCmd(0xda); //--set com pins hardware configuration
  46:USER/BSP/Src/bsp_OLED.c **** 	WriteCmd(0x12);
  47:USER/BSP/Src/bsp_OLED.c **** 	WriteCmd(0xdb); //--set vcomh
  48:USER/BSP/Src/bsp_OLED.c **** 	WriteCmd(0x20); //0x20,0.77xVcc
  49:USER/BSP/Src/bsp_OLED.c **** 	WriteCmd(0x8d); //--set DC-DC enable
  50:USER/BSP/Src/bsp_OLED.c **** 	WriteCmd(0x14); //
  51:USER/BSP/Src/bsp_OLED.c **** 	WriteCmd(0xaf); //--turn on oled panel
  52:USER/BSP/Src/bsp_OLED.c **** }
  53:USER/BSP/Src/bsp_OLED.c **** 
  54:USER/BSP/Src/bsp_OLED.c **** /**
  55:USER/BSP/Src/bsp_OLED.c ****  * @brief 设置起始点坐标
  56:USER/BSP/Src/bsp_OLED.c ****  * 
  57:USER/BSP/Src/bsp_OLED.c ****  * @param x 
  58:USER/BSP/Src/bsp_OLED.c ****  * @param y 
  59:USER/BSP/Src/bsp_OLED.c ****  */
  60:USER/BSP/Src/bsp_OLED.c **** void bsp_OLED_SetPos(unsigned char x, unsigned char y) 
  61:USER/BSP/Src/bsp_OLED.c **** { 
  62:USER/BSP/Src/bsp_OLED.c **** 	WriteCmd(0xb0+y);
  63:USER/BSP/Src/bsp_OLED.c **** 	WriteCmd(((x&0xf0)>>4)|0x10);
  64:USER/BSP/Src/bsp_OLED.c **** 	WriteCmd((x&0x0f)|0x01);
  65:USER/BSP/Src/bsp_OLED.c **** }
  66:USER/BSP/Src/bsp_OLED.c **** 
  67:USER/BSP/Src/bsp_OLED.c **** 
  68:USER/BSP/Src/bsp_OLED.c **** 
  69:USER/BSP/Src/bsp_OLED.c **** /**
  70:USER/BSP/Src/bsp_OLED.c ****  * @brief 全屏幕显示
  71:USER/BSP/Src/bsp_OLED.c ****  * 
  72:USER/BSP/Src/bsp_OLED.c ****  * @param fill_Data 
  73:USER/BSP/Src/bsp_OLED.c ****  */
  74:USER/BSP/Src/bsp_OLED.c **** void bsp_OLED_Fill(unsigned char fill_Data)
  75:USER/BSP/Src/bsp_OLED.c **** { 
  76:USER/BSP/Src/bsp_OLED.c **** 	unsigned char m,n;
  77:USER/BSP/Src/bsp_OLED.c **** 	for(m=0;m<8;m++)
  78:USER/BSP/Src/bsp_OLED.c ****     {
  79:USER/BSP/Src/bsp_OLED.c **** 		WriteCmd(0xb0+m);		//page0-page1
  80:USER/BSP/Src/bsp_OLED.c **** 		WriteCmd(0x00);		//low column start address
  81:USER/BSP/Src/bsp_OLED.c **** 		WriteCmd(0x10);		//high column start address
  82:USER/BSP/Src/bsp_OLED.c **** 		for(n=0;n<128;n++)
  83:USER/BSP/Src/bsp_OLED.c ****         {
  84:USER/BSP/Src/bsp_OLED.c **** 			WriteDat(fill_Data);
  85:USER/BSP/Src/bsp_OLED.c **** 		}
  86:USER/BSP/Src/bsp_OLED.c **** 	}
ARM GAS  /var/folders/cb/0rfcg7_d4zbdkgdchwlcykcc0000gn/T//ccKAJtwl.s 			page 3


  87:USER/BSP/Src/bsp_OLED.c **** }
  88:USER/BSP/Src/bsp_OLED.c **** 
  89:USER/BSP/Src/bsp_OLED.c **** /**
  90:USER/BSP/Src/bsp_OLED.c ****  * @brief 全屏幕清空
  91:USER/BSP/Src/bsp_OLED.c ****  * 
  92:USER/BSP/Src/bsp_OLED.c ****  */
  93:USER/BSP/Src/bsp_OLED.c **** void bsp_OLED_CLR(void)
  94:USER/BSP/Src/bsp_OLED.c **** {
  95:USER/BSP/Src/bsp_OLED.c **** 	bsp_OLED_Fill(0x00);
  96:USER/BSP/Src/bsp_OLED.c **** }
  97:USER/BSP/Src/bsp_OLED.c **** 
  98:USER/BSP/Src/bsp_OLED.c **** /**
  99:USER/BSP/Src/bsp_OLED.c ****  * @brief bsp_OLED屏幕启动
 100:USER/BSP/Src/bsp_OLED.c ****  * 
 101:USER/BSP/Src/bsp_OLED.c ****  */
 102:USER/BSP/Src/bsp_OLED.c **** void bsp_OLED_ON(void)
 103:USER/BSP/Src/bsp_OLED.c **** {
 104:USER/BSP/Src/bsp_OLED.c **** 	WriteCmd(0X8D);  //设置电荷泵
 105:USER/BSP/Src/bsp_OLED.c **** 	WriteCmd(0X14);  //开启电荷泵
 106:USER/BSP/Src/bsp_OLED.c **** 	WriteCmd(0XAF);  //OLED唤醒
 107:USER/BSP/Src/bsp_OLED.c **** }
 108:USER/BSP/Src/bsp_OLED.c **** 
 109:USER/BSP/Src/bsp_OLED.c **** /**
 110:USER/BSP/Src/bsp_OLED.c ****  * @brief bsp_OLED屏幕关闭
 111:USER/BSP/Src/bsp_OLED.c ****  * 
 112:USER/BSP/Src/bsp_OLED.c ****  */
 113:USER/BSP/Src/bsp_OLED.c **** void bsp_OLED_OFF(void)
 114:USER/BSP/Src/bsp_OLED.c **** {
 115:USER/BSP/Src/bsp_OLED.c **** 	WriteCmd(0X8D);  //设置电荷泵
 116:USER/BSP/Src/bsp_OLED.c **** 	WriteCmd(0X10);  //关闭电荷泵
 117:USER/BSP/Src/bsp_OLED.c **** 	WriteCmd(0XAE);  //OLED休眠
 118:USER/BSP/Src/bsp_OLED.c **** }
 119:USER/BSP/Src/bsp_OLED.c **** 
 120:USER/BSP/Src/bsp_OLED.c **** 
 121:USER/BSP/Src/bsp_OLED.c **** 
 122:USER/BSP/Src/bsp_OLED.c **** /**
 123:USER/BSP/Src/bsp_OLED.c ****  * @brief 字符串显示
 124:USER/BSP/Src/bsp_OLED.c ****  * 
 125:USER/BSP/Src/bsp_OLED.c ****  * @param x 起始坐标x
 126:USER/BSP/Src/bsp_OLED.c ****  * @param y 起始坐标y
 127:USER/BSP/Src/bsp_OLED.c ****  * @param ch[] 要显示字符串
 128:USER/BSP/Src/bsp_OLED.c ****  * @param TextSize 文字大小 1:6*8   2:8*16
 129:USER/BSP/Src/bsp_OLED.c ****  */
 130:USER/BSP/Src/bsp_OLED.c **** void bsp_OLED_ShowStr(unsigned char x, unsigned char y, unsigned char *ch, unsigned char TextSize)
 131:USER/BSP/Src/bsp_OLED.c **** {
 132:USER/BSP/Src/bsp_OLED.c **** 	unsigned char c = 0,i = 0,j = 0;
 133:USER/BSP/Src/bsp_OLED.c **** 	switch(TextSize)
 134:USER/BSP/Src/bsp_OLED.c ****     {
 135:USER/BSP/Src/bsp_OLED.c **** 		case 1:
 136:USER/BSP/Src/bsp_OLED.c ****         {
 137:USER/BSP/Src/bsp_OLED.c **** 			while(ch[j] != '\0')
 138:USER/BSP/Src/bsp_OLED.c ****             {
 139:USER/BSP/Src/bsp_OLED.c **** 				c = ch[j] - 32;
 140:USER/BSP/Src/bsp_OLED.c **** 				if(x > 126)
 141:USER/BSP/Src/bsp_OLED.c ****                 {
 142:USER/BSP/Src/bsp_OLED.c **** 					x = 0;
 143:USER/BSP/Src/bsp_OLED.c **** 					y++;
ARM GAS  /var/folders/cb/0rfcg7_d4zbdkgdchwlcykcc0000gn/T//ccKAJtwl.s 			page 4


 144:USER/BSP/Src/bsp_OLED.c **** 				}
 145:USER/BSP/Src/bsp_OLED.c **** 				bsp_OLED_SetPos(x,y);
 146:USER/BSP/Src/bsp_OLED.c **** 				for(i=0;i<6;i++)
 147:USER/BSP/Src/bsp_OLED.c **** 					WriteDat(F6x8[c][i]);
 148:USER/BSP/Src/bsp_OLED.c **** 				x += 6;
 149:USER/BSP/Src/bsp_OLED.c **** 				j++;
 150:USER/BSP/Src/bsp_OLED.c **** 			}
 151:USER/BSP/Src/bsp_OLED.c **** 		}break;
 152:USER/BSP/Src/bsp_OLED.c **** 		case 2:
 153:USER/BSP/Src/bsp_OLED.c ****         {
 154:USER/BSP/Src/bsp_OLED.c **** 			while(ch[j] != '\0')
 155:USER/BSP/Src/bsp_OLED.c ****             {
 156:USER/BSP/Src/bsp_OLED.c **** 				c = ch[j] - 32;
 157:USER/BSP/Src/bsp_OLED.c **** 				if(x > 120)
 158:USER/BSP/Src/bsp_OLED.c ****                 {
 159:USER/BSP/Src/bsp_OLED.c **** 					x = 0;
 160:USER/BSP/Src/bsp_OLED.c **** 					y++;
 161:USER/BSP/Src/bsp_OLED.c **** 				}
 162:USER/BSP/Src/bsp_OLED.c **** 				bsp_OLED_SetPos(x,y);
 163:USER/BSP/Src/bsp_OLED.c **** 				for(i=0;i<8;i++)
 164:USER/BSP/Src/bsp_OLED.c **** 					WriteDat(F8X16[c*16+i]);
 165:USER/BSP/Src/bsp_OLED.c **** 				bsp_OLED_SetPos(x,y+1);
 166:USER/BSP/Src/bsp_OLED.c **** 				for(i=0;i<8;i++)
 167:USER/BSP/Src/bsp_OLED.c **** 					WriteDat(F8X16[c*16+i+8]);
 168:USER/BSP/Src/bsp_OLED.c **** 				x += 8;
 169:USER/BSP/Src/bsp_OLED.c **** 				j++;
 170:USER/BSP/Src/bsp_OLED.c **** 			}
 171:USER/BSP/Src/bsp_OLED.c **** 		}break;
 172:USER/BSP/Src/bsp_OLED.c **** 	}
 173:USER/BSP/Src/bsp_OLED.c **** }
 174:USER/BSP/Src/bsp_OLED.c **** 
 175:USER/BSP/Src/bsp_OLED.c **** 
 176:USER/BSP/Src/bsp_OLED.c **** /**
 177:USER/BSP/Src/bsp_OLED.c ****  * @brief 中文显示
 178:USER/BSP/Src/bsp_OLED.c ****  * 
 179:USER/BSP/Src/bsp_OLED.c ****  * @param x 起始点坐标X
 180:USER/BSP/Src/bsp_OLED.c ****  * @param y 起始点坐标Y
 181:USER/BSP/Src/bsp_OLED.c ****  * @param N 要显示的汉字
 182:USER/BSP/Src/bsp_OLED.c ****  */
 183:USER/BSP/Src/bsp_OLED.c **** void bsp_OLED_ShowCN(unsigned char x, unsigned char y, unsigned char N)
 184:USER/BSP/Src/bsp_OLED.c **** {
 185:USER/BSP/Src/bsp_OLED.c **** 	unsigned char wm=0;
 186:USER/BSP/Src/bsp_OLED.c **** 	unsigned int  adder=32*N;
 187:USER/BSP/Src/bsp_OLED.c **** 	bsp_OLED_SetPos(x , y);
 188:USER/BSP/Src/bsp_OLED.c **** 	for(wm = 0;wm < 16;wm++)
 189:USER/BSP/Src/bsp_OLED.c **** 	{
 190:USER/BSP/Src/bsp_OLED.c **** 		WriteDat(F16x16[adder]);
 191:USER/BSP/Src/bsp_OLED.c **** 		adder += 1;
 192:USER/BSP/Src/bsp_OLED.c **** 	}
 193:USER/BSP/Src/bsp_OLED.c **** 	bsp_OLED_SetPos(x,y + 1);
 194:USER/BSP/Src/bsp_OLED.c **** 	for(wm = 0;wm < 16;wm++)
 195:USER/BSP/Src/bsp_OLED.c **** 	{
 196:USER/BSP/Src/bsp_OLED.c **** 		WriteDat(F16x16[adder]);
 197:USER/BSP/Src/bsp_OLED.c **** 		adder += 1;
 198:USER/BSP/Src/bsp_OLED.c **** 	}
 199:USER/BSP/Src/bsp_OLED.c **** }
 200:USER/BSP/Src/bsp_OLED.c **** 
ARM GAS  /var/folders/cb/0rfcg7_d4zbdkgdchwlcykcc0000gn/T//ccKAJtwl.s 			page 5


 201:USER/BSP/Src/bsp_OLED.c **** 
 202:USER/BSP/Src/bsp_OLED.c **** 
 203:USER/BSP/Src/bsp_OLED.c **** 
 204:USER/BSP/Src/bsp_OLED.c **** // 这是自己写的显示中文字符串的函数，要先把中文字符串“共阴——列行
 205:USER/BSP/Src/bsp_OLED.c **** //传入参数分别为：x:起始横坐标  
 206:USER/BSP/Src/bsp_OLED.c **** //								y：纵坐标(填入0-7)  
 207:USER/BSP/Src/bsp_OLED.c **** //								begin:填入的中文字符串的第一个字在我们ascll.c字库里面的序号  
 208:USER/BSP/Src/bsp_OLED.c **** //                num:我们要填写几个字
 209:USER/BSP/Src/bsp_OLED.c **** //                比如要填“测试”，取完字模存入后这两个字在字库中序号为
 210:USER/BSP/Src/bsp_OLED.c **** void bsp_OLED_ShowCN_STR(u8 x , u8 y , u8 begin , u8 num)
 211:USER/BSP/Src/bsp_OLED.c **** {
 212:USER/BSP/Src/bsp_OLED.c **** 	u8 i;
 213:USER/BSP/Src/bsp_OLED.c **** 	for(i=0;i<num;i++)
 214:USER/BSP/Src/bsp_OLED.c ****     {
 215:USER/BSP/Src/bsp_OLED.c ****         bsp_OLED_ShowCN(i*16+x,y,i+begin);
 216:USER/BSP/Src/bsp_OLED.c ****     }    //OLED显示标题
 217:USER/BSP/Src/bsp_OLED.c **** }
 218:USER/BSP/Src/bsp_OLED.c **** 
 219:USER/BSP/Src/bsp_OLED.c **** 
 220:USER/BSP/Src/bsp_OLED.c **** 
 221:USER/BSP/Src/bsp_OLED.c **** // Parameters     : x0,y0 -- ; x1,y1 -- 起点对角线(结束点)的坐标(x1:1~128,y1:1~8)
 222:USER/BSP/Src/bsp_OLED.c **** // Description    : 显示BMP位图
 223:USER/BSP/Src/bsp_OLED.c **** /**
 224:USER/BSP/Src/bsp_OLED.c ****  * @brief 
 225:USER/BSP/Src/bsp_OLED.c ****  * 
 226:USER/BSP/Src/bsp_OLED.c ****  * @param x0 起始坐标点 起始点坐标(x0:0~127, y0:0~7)
 227:USER/BSP/Src/bsp_OLED.c ****  * @param y0 
 228:USER/BSP/Src/bsp_OLED.c ****  * @param x1 结束点坐标  起点对角线(结束点)的坐标(x1:1~128,y1:1~8)
 229:USER/BSP/Src/bsp_OLED.c ****  * @param y1 
 230:USER/BSP/Src/bsp_OLED.c ****  * @param BMP 显示BMP位图
 231:USER/BSP/Src/bsp_OLED.c ****  */
 232:USER/BSP/Src/bsp_OLED.c **** void bsp_OLED_DrawBMP(unsigned char x0,unsigned char y0,unsigned char x1,unsigned char y1,unsigned 
 233:USER/BSP/Src/bsp_OLED.c **** {
 234:USER/BSP/Src/bsp_OLED.c **** 	unsigned int j=0;
 235:USER/BSP/Src/bsp_OLED.c **** 	unsigned char x,y;
 236:USER/BSP/Src/bsp_OLED.c **** 
 237:USER/BSP/Src/bsp_OLED.c ****   if(y1%8==0)
 238:USER/BSP/Src/bsp_OLED.c **** 		y = y1/8;
 239:USER/BSP/Src/bsp_OLED.c ****   else
 240:USER/BSP/Src/bsp_OLED.c **** 		y = y1/8 + 1;
 241:USER/BSP/Src/bsp_OLED.c **** 	for(y=y0;y<y1;y++)
 242:USER/BSP/Src/bsp_OLED.c **** 	{
 243:USER/BSP/Src/bsp_OLED.c ****         bsp_OLED_SetPos(x0,y);
 244:USER/BSP/Src/bsp_OLED.c ****         for(x=x0;x<x1;x++)
 245:USER/BSP/Src/bsp_OLED.c **** 		{
 246:USER/BSP/Src/bsp_OLED.c **** 			WriteDat(BMP[j++]);
 247:USER/BSP/Src/bsp_OLED.c **** 		}
 248:USER/BSP/Src/bsp_OLED.c **** 	}
 249:USER/BSP/Src/bsp_OLED.c **** }
 250:USER/BSP/Src/bsp_OLED.c **** 
 251:USER/BSP/Src/bsp_OLED.c **** /**
 252:USER/BSP/Src/bsp_OLED.c ****  * @brief 显示单个字母
 253:USER/BSP/Src/bsp_OLED.c ****  * 
 254:USER/BSP/Src/bsp_OLED.c ****  * @param x 起始点坐标 
 255:USER/BSP/Src/bsp_OLED.c ****  * @param y 
 256:USER/BSP/Src/bsp_OLED.c ****  * @param chr 字符
 257:USER/BSP/Src/bsp_OLED.c ****  * @param Char_Size  
ARM GAS  /var/folders/cb/0rfcg7_d4zbdkgdchwlcykcc0000gn/T//ccKAJtwl.s 			page 6


 258:USER/BSP/Src/bsp_OLED.c ****  */
 259:USER/BSP/Src/bsp_OLED.c **** void bsp_OLED_ShowChar(u8 x,u8 y,u8 chr,u8 Char_Size)
 260:USER/BSP/Src/bsp_OLED.c **** {      	
 261:USER/BSP/Src/bsp_OLED.c **** 	unsigned char c=0,i=0;	
 262:USER/BSP/Src/bsp_OLED.c **** 	c=chr-' ';//得到偏移后的值			
 263:USER/BSP/Src/bsp_OLED.c **** 	if(x>128-1){x=0;y=y+2;}
 264:USER/BSP/Src/bsp_OLED.c **** 	if(Char_Size ==16)
 265:USER/BSP/Src/bsp_OLED.c **** 	{
 266:USER/BSP/Src/bsp_OLED.c **** 		bsp_OLED_SetPos(x,y);	
 267:USER/BSP/Src/bsp_OLED.c **** 		for(i=0;i<8;i++)
 268:USER/BSP/Src/bsp_OLED.c **** 		WriteDat(F8X16[c*16+i]);
 269:USER/BSP/Src/bsp_OLED.c **** 		bsp_OLED_SetPos(x,y+1);
 270:USER/BSP/Src/bsp_OLED.c **** 		for(i=0;i<8;i++)
 271:USER/BSP/Src/bsp_OLED.c **** 		WriteDat(F8X16[c*16+i+8]);
 272:USER/BSP/Src/bsp_OLED.c **** 	}
 273:USER/BSP/Src/bsp_OLED.c **** 	else 
 274:USER/BSP/Src/bsp_OLED.c ****     {	
 275:USER/BSP/Src/bsp_OLED.c **** 		bsp_OLED_SetPos(x,y);
 276:USER/BSP/Src/bsp_OLED.c **** 		for(i=0;i<6;i++)
 277:USER/BSP/Src/bsp_OLED.c **** 		WriteDat(F6x8[c][i]);	
 278:USER/BSP/Src/bsp_OLED.c **** 	}
 279:USER/BSP/Src/bsp_OLED.c **** }
 280:USER/BSP/Src/bsp_OLED.c **** 
 281:USER/BSP/Src/bsp_OLED.c **** 
 282:USER/BSP/Src/bsp_OLED.c **** 
 283:USER/BSP/Src/bsp_OLED.c **** u32 bsp_OLED_pow(u8 m,u8 n)
 284:USER/BSP/Src/bsp_OLED.c **** {
  30              		.loc 1 284 1 view -0
  31              		.cfi_startproc
  32              		@ args = 0, pretend = 0, frame = 0
  33              		@ frame_needed = 0, uses_anonymous_args = 0
  34              		@ link register save eliminated.
  35              		.loc 1 284 1 is_stmt 0 view .LVU1
  36 0000 0246     		mov	r2, r0
 285:USER/BSP/Src/bsp_OLED.c **** 	u32 result=1;	 
  37              		.loc 1 285 2 is_stmt 1 view .LVU2
  38              	.LVL1:
 286:USER/BSP/Src/bsp_OLED.c **** 	while(n--)result*=m;    
  39              		.loc 1 286 2 view .LVU3
 285:USER/BSP/Src/bsp_OLED.c **** 	u32 result=1;	 
  40              		.loc 1 285 6 is_stmt 0 view .LVU4
  41 0002 0120     		movs	r0, #1
  42              	.LVL2:
  43              	.L2:
  44              		.loc 1 286 7 is_stmt 1 discriminator 1 view .LVU5
  45              		.loc 1 286 9 is_stmt 0 discriminator 1 view .LVU6
  46 0004 4B1E     		subs	r3, r1, #1
  47 0006 DBB2     		uxtb	r3, r3
  48              	.LVL3:
  49              		.loc 1 286 7 discriminator 1 view .LVU7
  50 0008 19B1     		cbz	r1, .L4
  51              		.loc 1 286 12 is_stmt 1 discriminator 2 view .LVU8
  52              		.loc 1 286 18 is_stmt 0 discriminator 2 view .LVU9
  53 000a 02FB00F0 		mul	r0, r2, r0
  54              	.LVL4:
  55              		.loc 1 286 9 discriminator 2 view .LVU10
  56 000e 1946     		mov	r1, r3
ARM GAS  /var/folders/cb/0rfcg7_d4zbdkgdchwlcykcc0000gn/T//ccKAJtwl.s 			page 7


  57 0010 F8E7     		b	.L2
  58              	.L4:
 287:USER/BSP/Src/bsp_OLED.c **** 	return result;
 288:USER/BSP/Src/bsp_OLED.c **** }	
  59              		.loc 1 288 1 view .LVU11
  60 0012 7047     		bx	lr
  61              		.cfi_endproc
  62              	.LFE141:
  64              		.section	.text.WriteCmd,"ax",%progbits
  65              		.align	1
  66              		.global	WriteCmd
  67              		.syntax unified
  68              		.thumb
  69              		.thumb_func
  70              		.fpu fpv4-sp-d16
  72              	WriteCmd:
  73              	.LVL5:
  74              	.LFB143:
 289:USER/BSP/Src/bsp_OLED.c **** //显示2个数字
 290:USER/BSP/Src/bsp_OLED.c **** //x,y :起点坐标	 
 291:USER/BSP/Src/bsp_OLED.c **** //len :数字的位数
 292:USER/BSP/Src/bsp_OLED.c **** //size:字体大小
 293:USER/BSP/Src/bsp_OLED.c **** //mode:模式	0,填充模式;1,叠加模式
 294:USER/BSP/Src/bsp_OLED.c **** //num:数值(0~4294967295);
 295:USER/BSP/Src/bsp_OLED.c **** /**
 296:USER/BSP/Src/bsp_OLED.c ****  * @brief 显示数字
 297:USER/BSP/Src/bsp_OLED.c ****  * 
 298:USER/BSP/Src/bsp_OLED.c ****  * @param x 起始坐标
 299:USER/BSP/Src/bsp_OLED.c ****  * @param y 
 300:USER/BSP/Src/bsp_OLED.c ****  * @param num 要显示的数值
 301:USER/BSP/Src/bsp_OLED.c ****  * @param len 数字位数
 302:USER/BSP/Src/bsp_OLED.c ****  * @param size2 大小
 303:USER/BSP/Src/bsp_OLED.c ****  */
 304:USER/BSP/Src/bsp_OLED.c **** void bsp_OLED_ShowNum(u8 x,u8 y,u32 num,u8 len,u8 size2)
 305:USER/BSP/Src/bsp_OLED.c **** {         	
 306:USER/BSP/Src/bsp_OLED.c **** 	u8 t,temp;
 307:USER/BSP/Src/bsp_OLED.c **** 	u8 enshow=0;						   
 308:USER/BSP/Src/bsp_OLED.c **** 	for(t=0;t<len;t++)
 309:USER/BSP/Src/bsp_OLED.c **** 	{
 310:USER/BSP/Src/bsp_OLED.c **** 		temp=(num/bsp_OLED_pow(10,len-t-1))%10;
 311:USER/BSP/Src/bsp_OLED.c **** 		if(enshow==0&&t<(len-1))
 312:USER/BSP/Src/bsp_OLED.c **** 		{
 313:USER/BSP/Src/bsp_OLED.c **** 			if(temp==0)
 314:USER/BSP/Src/bsp_OLED.c **** 			{
 315:USER/BSP/Src/bsp_OLED.c **** 				bsp_OLED_ShowChar(x+(size2/2)*t,y,' ',size2);
 316:USER/BSP/Src/bsp_OLED.c **** 				continue;
 317:USER/BSP/Src/bsp_OLED.c **** 			}else enshow=1; 
 318:USER/BSP/Src/bsp_OLED.c **** 		}
 319:USER/BSP/Src/bsp_OLED.c **** 	 	bsp_OLED_ShowChar(x+(size2/2)*t,y,temp+'0',size2); 
 320:USER/BSP/Src/bsp_OLED.c **** 	}
 321:USER/BSP/Src/bsp_OLED.c **** } 
 322:USER/BSP/Src/bsp_OLED.c **** 
 323:USER/BSP/Src/bsp_OLED.c **** /**
 324:USER/BSP/Src/bsp_OLED.c ****  * @brief 对OLED进行指令数据写入
 325:USER/BSP/Src/bsp_OLED.c ****  * 
 326:USER/BSP/Src/bsp_OLED.c ****  * @param I2C_Command 
 327:USER/BSP/Src/bsp_OLED.c ****  */
ARM GAS  /var/folders/cb/0rfcg7_d4zbdkgdchwlcykcc0000gn/T//ccKAJtwl.s 			page 8


 328:USER/BSP/Src/bsp_OLED.c **** void WriteCmd(unsigned char I2C_Command)
 329:USER/BSP/Src/bsp_OLED.c **** {
  75              		.loc 1 329 1 is_stmt 1 view -0
  76              		.cfi_startproc
  77              		@ args = 0, pretend = 0, frame = 8
  78              		@ frame_needed = 0, uses_anonymous_args = 0
  79              		.loc 1 329 1 is_stmt 0 view .LVU13
  80 0000 00B5     		push	{lr}
  81              	.LCFI0:
  82              		.cfi_def_cfa_offset 4
  83              		.cfi_offset 14, -4
  84 0002 87B0     		sub	sp, sp, #28
  85              	.LCFI1:
  86              		.cfi_def_cfa_offset 32
  87 0004 8DF81700 		strb	r0, [sp, #23]
 330:USER/BSP/Src/bsp_OLED.c **** 	HAL_I2C_Mem_Write(&hi2c2,OLED0561_ADD,COM,I2C_MEMADD_SIZE_8BIT,&I2C_Command,1,100);
  88              		.loc 1 330 2 is_stmt 1 view .LVU14
  89 0008 6423     		movs	r3, #100
  90 000a 0293     		str	r3, [sp, #8]
  91 000c 0123     		movs	r3, #1
  92 000e 0193     		str	r3, [sp, #4]
  93 0010 0DF11702 		add	r2, sp, #23
  94 0014 0092     		str	r2, [sp]
  95 0016 0022     		movs	r2, #0
  96 0018 7821     		movs	r1, #120
  97 001a 0348     		ldr	r0, .L7
  98              	.LVL6:
  99              		.loc 1 330 2 is_stmt 0 view .LVU15
 100 001c FFF7FEFF 		bl	HAL_I2C_Mem_Write
 101              	.LVL7:
 331:USER/BSP/Src/bsp_OLED.c **** }
 102              		.loc 1 331 1 view .LVU16
 103 0020 07B0     		add	sp, sp, #28
 104              	.LCFI2:
 105              		.cfi_def_cfa_offset 4
 106              		@ sp needed
 107 0022 5DF804FB 		ldr	pc, [sp], #4
 108              	.L8:
 109 0026 00BF     		.align	2
 110              	.L7:
 111 0028 00000000 		.word	hi2c2
 112              		.cfi_endproc
 113              	.LFE143:
 115              		.section	.text.bsp_OLED_Init,"ax",%progbits
 116              		.align	1
 117              		.global	bsp_OLED_Init
 118              		.syntax unified
 119              		.thumb
 120              		.thumb_func
 121              		.fpu fpv4-sp-d16
 123              	bsp_OLED_Init:
 124              	.LFB130:
  22:USER/BSP/Src/bsp_OLED.c **** 	HAL_Delay(100); //这里的延时很重要
 125              		.loc 1 22 1 is_stmt 1 view -0
 126              		.cfi_startproc
 127              		@ args = 0, pretend = 0, frame = 0
 128              		@ frame_needed = 0, uses_anonymous_args = 0
ARM GAS  /var/folders/cb/0rfcg7_d4zbdkgdchwlcykcc0000gn/T//ccKAJtwl.s 			page 9


 129 0000 08B5     		push	{r3, lr}
 130              	.LCFI3:
 131              		.cfi_def_cfa_offset 8
 132              		.cfi_offset 3, -8
 133              		.cfi_offset 14, -4
  23:USER/BSP/Src/bsp_OLED.c **** 	WriteCmd(0xAE); //display off
 134              		.loc 1 23 2 view .LVU18
 135 0002 6420     		movs	r0, #100
 136 0004 FFF7FEFF 		bl	HAL_Delay
 137              	.LVL8:
  24:USER/BSP/Src/bsp_OLED.c **** 	WriteCmd(0x20);	//Set Memory Addressing Mode	
 138              		.loc 1 24 2 view .LVU19
 139 0008 AE20     		movs	r0, #174
 140 000a FFF7FEFF 		bl	WriteCmd
 141              	.LVL9:
  25:USER/BSP/Src/bsp_OLED.c **** 	WriteCmd(0x10);	//00,Horizontal Addressing Mode;01,Vertical Addressing Mode;10,Page Addressing Mod
 142              		.loc 1 25 2 view .LVU20
 143 000e 2020     		movs	r0, #32
 144 0010 FFF7FEFF 		bl	WriteCmd
 145              	.LVL10:
  26:USER/BSP/Src/bsp_OLED.c **** 	WriteCmd(0xb0);	//Set Page Start Address for Page Addressing Mode,0-7
 146              		.loc 1 26 2 view .LVU21
 147 0014 1020     		movs	r0, #16
 148 0016 FFF7FEFF 		bl	WriteCmd
 149              	.LVL11:
  27:USER/BSP/Src/bsp_OLED.c **** 	WriteCmd(0xc8);	//Set COM Output Scan Direction
 150              		.loc 1 27 2 view .LVU22
 151 001a B020     		movs	r0, #176
 152 001c FFF7FEFF 		bl	WriteCmd
 153              	.LVL12:
  28:USER/BSP/Src/bsp_OLED.c **** 	WriteCmd(0x00); //---set low column address
 154              		.loc 1 28 2 view .LVU23
 155 0020 C820     		movs	r0, #200
 156 0022 FFF7FEFF 		bl	WriteCmd
 157              	.LVL13:
  29:USER/BSP/Src/bsp_OLED.c **** 	WriteCmd(0x10); //---set high column address
 158              		.loc 1 29 2 view .LVU24
 159 0026 0020     		movs	r0, #0
 160 0028 FFF7FEFF 		bl	WriteCmd
 161              	.LVL14:
  30:USER/BSP/Src/bsp_OLED.c **** 	WriteCmd(0x40); //--set start line address
 162              		.loc 1 30 2 view .LVU25
 163 002c 1020     		movs	r0, #16
 164 002e FFF7FEFF 		bl	WriteCmd
 165              	.LVL15:
  31:USER/BSP/Src/bsp_OLED.c **** 	WriteCmd(0x81); //--set contrast control register
 166              		.loc 1 31 2 view .LVU26
 167 0032 4020     		movs	r0, #64
 168 0034 FFF7FEFF 		bl	WriteCmd
 169              	.LVL16:
  32:USER/BSP/Src/bsp_OLED.c **** 	WriteCmd(0xff); //亮度调节 0x00~0xff
 170              		.loc 1 32 2 view .LVU27
 171 0038 8120     		movs	r0, #129
 172 003a FFF7FEFF 		bl	WriteCmd
 173              	.LVL17:
  33:USER/BSP/Src/bsp_OLED.c **** 	WriteCmd(0xa1); //--set segment re-map 0 to 127
 174              		.loc 1 33 2 view .LVU28
ARM GAS  /var/folders/cb/0rfcg7_d4zbdkgdchwlcykcc0000gn/T//ccKAJtwl.s 			page 10


 175 003e FF20     		movs	r0, #255
 176 0040 FFF7FEFF 		bl	WriteCmd
 177              	.LVL18:
  34:USER/BSP/Src/bsp_OLED.c **** 	WriteCmd(0xa6); //--set normal display
 178              		.loc 1 34 2 view .LVU29
 179 0044 A120     		movs	r0, #161
 180 0046 FFF7FEFF 		bl	WriteCmd
 181              	.LVL19:
  35:USER/BSP/Src/bsp_OLED.c **** 	WriteCmd(0xa8); //--set multiplex ratio(1 to 64)
 182              		.loc 1 35 2 view .LVU30
 183 004a A620     		movs	r0, #166
 184 004c FFF7FEFF 		bl	WriteCmd
 185              	.LVL20:
  36:USER/BSP/Src/bsp_OLED.c **** 	WriteCmd(0x3F); //
 186              		.loc 1 36 2 view .LVU31
 187 0050 A820     		movs	r0, #168
 188 0052 FFF7FEFF 		bl	WriteCmd
 189              	.LVL21:
  37:USER/BSP/Src/bsp_OLED.c **** 	WriteCmd(0xa4); //0xa4,Output follows RAM content;0xa5,Output ignores RAM content
 190              		.loc 1 37 2 view .LVU32
 191 0056 3F20     		movs	r0, #63
 192 0058 FFF7FEFF 		bl	WriteCmd
 193              	.LVL22:
  38:USER/BSP/Src/bsp_OLED.c **** 	WriteCmd(0xd3); //-set display offset
 194              		.loc 1 38 2 view .LVU33
 195 005c A420     		movs	r0, #164
 196 005e FFF7FEFF 		bl	WriteCmd
 197              	.LVL23:
  39:USER/BSP/Src/bsp_OLED.c **** 	WriteCmd(0x00); //-not offset
 198              		.loc 1 39 2 view .LVU34
 199 0062 D320     		movs	r0, #211
 200 0064 FFF7FEFF 		bl	WriteCmd
 201              	.LVL24:
  40:USER/BSP/Src/bsp_OLED.c **** 	WriteCmd(0xd5); //--set display clock divide ratio/oscillator frequency
 202              		.loc 1 40 2 view .LVU35
 203 0068 0020     		movs	r0, #0
 204 006a FFF7FEFF 		bl	WriteCmd
 205              	.LVL25:
  41:USER/BSP/Src/bsp_OLED.c **** 	WriteCmd(0xf0); //--set divide ratio
 206              		.loc 1 41 2 view .LVU36
 207 006e D520     		movs	r0, #213
 208 0070 FFF7FEFF 		bl	WriteCmd
 209              	.LVL26:
  42:USER/BSP/Src/bsp_OLED.c **** 	WriteCmd(0xd9); //--set pre-charge period
 210              		.loc 1 42 2 view .LVU37
 211 0074 F020     		movs	r0, #240
 212 0076 FFF7FEFF 		bl	WriteCmd
 213              	.LVL27:
  43:USER/BSP/Src/bsp_OLED.c **** 	WriteCmd(0x22); //
 214              		.loc 1 43 2 view .LVU38
 215 007a D920     		movs	r0, #217
 216 007c FFF7FEFF 		bl	WriteCmd
 217              	.LVL28:
  44:USER/BSP/Src/bsp_OLED.c **** 	WriteCmd(0xda); //--set com pins hardware configuration
 218              		.loc 1 44 2 view .LVU39
 219 0080 2220     		movs	r0, #34
 220 0082 FFF7FEFF 		bl	WriteCmd
ARM GAS  /var/folders/cb/0rfcg7_d4zbdkgdchwlcykcc0000gn/T//ccKAJtwl.s 			page 11


 221              	.LVL29:
  45:USER/BSP/Src/bsp_OLED.c **** 	WriteCmd(0x12);
 222              		.loc 1 45 2 view .LVU40
 223 0086 DA20     		movs	r0, #218
 224 0088 FFF7FEFF 		bl	WriteCmd
 225              	.LVL30:
  46:USER/BSP/Src/bsp_OLED.c **** 	WriteCmd(0xdb); //--set vcomh
 226              		.loc 1 46 2 view .LVU41
 227 008c 1220     		movs	r0, #18
 228 008e FFF7FEFF 		bl	WriteCmd
 229              	.LVL31:
  47:USER/BSP/Src/bsp_OLED.c **** 	WriteCmd(0x20); //0x20,0.77xVcc
 230              		.loc 1 47 2 view .LVU42
 231 0092 DB20     		movs	r0, #219
 232 0094 FFF7FEFF 		bl	WriteCmd
 233              	.LVL32:
  48:USER/BSP/Src/bsp_OLED.c **** 	WriteCmd(0x8d); //--set DC-DC enable
 234              		.loc 1 48 2 view .LVU43
 235 0098 2020     		movs	r0, #32
 236 009a FFF7FEFF 		bl	WriteCmd
 237              	.LVL33:
  49:USER/BSP/Src/bsp_OLED.c **** 	WriteCmd(0x14); //
 238              		.loc 1 49 2 view .LVU44
 239 009e 8D20     		movs	r0, #141
 240 00a0 FFF7FEFF 		bl	WriteCmd
 241              	.LVL34:
  50:USER/BSP/Src/bsp_OLED.c **** 	WriteCmd(0xaf); //--turn on oled panel
 242              		.loc 1 50 2 view .LVU45
 243 00a4 1420     		movs	r0, #20
 244 00a6 FFF7FEFF 		bl	WriteCmd
 245              	.LVL35:
  51:USER/BSP/Src/bsp_OLED.c **** }
 246              		.loc 1 51 2 view .LVU46
 247 00aa AF20     		movs	r0, #175
 248 00ac FFF7FEFF 		bl	WriteCmd
 249              	.LVL36:
  52:USER/BSP/Src/bsp_OLED.c **** 
 250              		.loc 1 52 1 is_stmt 0 view .LVU47
 251 00b0 08BD     		pop	{r3, pc}
 252              		.cfi_endproc
 253              	.LFE130:
 255              		.section	.text.bsp_OLED_SetPos,"ax",%progbits
 256              		.align	1
 257              		.global	bsp_OLED_SetPos
 258              		.syntax unified
 259              		.thumb
 260              		.thumb_func
 261              		.fpu fpv4-sp-d16
 263              	bsp_OLED_SetPos:
 264              	.LVL37:
 265              	.LFB131:
  61:USER/BSP/Src/bsp_OLED.c **** 	WriteCmd(0xb0+y);
 266              		.loc 1 61 1 is_stmt 1 view -0
 267              		.cfi_startproc
 268              		@ args = 0, pretend = 0, frame = 0
 269              		@ frame_needed = 0, uses_anonymous_args = 0
  61:USER/BSP/Src/bsp_OLED.c **** 	WriteCmd(0xb0+y);
ARM GAS  /var/folders/cb/0rfcg7_d4zbdkgdchwlcykcc0000gn/T//ccKAJtwl.s 			page 12


 270              		.loc 1 61 1 is_stmt 0 view .LVU49
 271 0000 10B5     		push	{r4, lr}
 272              	.LCFI4:
 273              		.cfi_def_cfa_offset 8
 274              		.cfi_offset 4, -8
 275              		.cfi_offset 14, -4
 276 0002 0446     		mov	r4, r0
  62:USER/BSP/Src/bsp_OLED.c **** 	WriteCmd(((x&0xf0)>>4)|0x10);
 277              		.loc 1 62 2 is_stmt 1 view .LVU50
 278 0004 A1F15000 		sub	r0, r1, #80
 279              	.LVL38:
  62:USER/BSP/Src/bsp_OLED.c **** 	WriteCmd(((x&0xf0)>>4)|0x10);
 280              		.loc 1 62 2 is_stmt 0 view .LVU51
 281 0008 C0B2     		uxtb	r0, r0
 282 000a FFF7FEFF 		bl	WriteCmd
 283              	.LVL39:
  63:USER/BSP/Src/bsp_OLED.c **** 	WriteCmd((x&0x0f)|0x01);
 284              		.loc 1 63 2 is_stmt 1 view .LVU52
  63:USER/BSP/Src/bsp_OLED.c **** 	WriteCmd((x&0x0f)|0x01);
 285              		.loc 1 63 20 is_stmt 0 view .LVU53
 286 000e 2009     		lsrs	r0, r4, #4
  63:USER/BSP/Src/bsp_OLED.c **** 	WriteCmd((x&0x0f)|0x01);
 287              		.loc 1 63 2 view .LVU54
 288 0010 40F01000 		orr	r0, r0, #16
 289 0014 FFF7FEFF 		bl	WriteCmd
 290              	.LVL40:
  64:USER/BSP/Src/bsp_OLED.c **** }
 291              		.loc 1 64 2 is_stmt 1 view .LVU55
  64:USER/BSP/Src/bsp_OLED.c **** }
 292              		.loc 1 64 19 is_stmt 0 view .LVU56
 293 0018 04F00E00 		and	r0, r4, #14
  64:USER/BSP/Src/bsp_OLED.c **** }
 294              		.loc 1 64 2 view .LVU57
 295 001c 40F00100 		orr	r0, r0, #1
 296 0020 FFF7FEFF 		bl	WriteCmd
 297              	.LVL41:
  65:USER/BSP/Src/bsp_OLED.c **** 
 298              		.loc 1 65 1 view .LVU58
 299 0024 10BD     		pop	{r4, pc}
 300              		.cfi_endproc
 301              	.LFE131:
 303              		.section	.text.bsp_OLED_ON,"ax",%progbits
 304              		.align	1
 305              		.global	bsp_OLED_ON
 306              		.syntax unified
 307              		.thumb
 308              		.thumb_func
 309              		.fpu fpv4-sp-d16
 311              	bsp_OLED_ON:
 312              	.LFB134:
 103:USER/BSP/Src/bsp_OLED.c **** 	WriteCmd(0X8D);  //设置电荷泵
 313              		.loc 1 103 1 is_stmt 1 view -0
 314              		.cfi_startproc
 315              		@ args = 0, pretend = 0, frame = 0
 316              		@ frame_needed = 0, uses_anonymous_args = 0
 317 0000 08B5     		push	{r3, lr}
 318              	.LCFI5:
ARM GAS  /var/folders/cb/0rfcg7_d4zbdkgdchwlcykcc0000gn/T//ccKAJtwl.s 			page 13


 319              		.cfi_def_cfa_offset 8
 320              		.cfi_offset 3, -8
 321              		.cfi_offset 14, -4
 104:USER/BSP/Src/bsp_OLED.c **** 	WriteCmd(0X14);  //开启电荷泵
 322              		.loc 1 104 2 view .LVU60
 323 0002 8D20     		movs	r0, #141
 324 0004 FFF7FEFF 		bl	WriteCmd
 325              	.LVL42:
 105:USER/BSP/Src/bsp_OLED.c **** 	WriteCmd(0XAF);  //OLED唤醒
 326              		.loc 1 105 2 view .LVU61
 327 0008 1420     		movs	r0, #20
 328 000a FFF7FEFF 		bl	WriteCmd
 329              	.LVL43:
 106:USER/BSP/Src/bsp_OLED.c **** }
 330              		.loc 1 106 2 view .LVU62
 331 000e AF20     		movs	r0, #175
 332 0010 FFF7FEFF 		bl	WriteCmd
 333              	.LVL44:
 107:USER/BSP/Src/bsp_OLED.c **** 
 334              		.loc 1 107 1 is_stmt 0 view .LVU63
 335 0014 08BD     		pop	{r3, pc}
 336              		.cfi_endproc
 337              	.LFE134:
 339              		.section	.text.bsp_OLED_OFF,"ax",%progbits
 340              		.align	1
 341              		.global	bsp_OLED_OFF
 342              		.syntax unified
 343              		.thumb
 344              		.thumb_func
 345              		.fpu fpv4-sp-d16
 347              	bsp_OLED_OFF:
 348              	.LFB135:
 114:USER/BSP/Src/bsp_OLED.c **** 	WriteCmd(0X8D);  //设置电荷泵
 349              		.loc 1 114 1 is_stmt 1 view -0
 350              		.cfi_startproc
 351              		@ args = 0, pretend = 0, frame = 0
 352              		@ frame_needed = 0, uses_anonymous_args = 0
 353 0000 08B5     		push	{r3, lr}
 354              	.LCFI6:
 355              		.cfi_def_cfa_offset 8
 356              		.cfi_offset 3, -8
 357              		.cfi_offset 14, -4
 115:USER/BSP/Src/bsp_OLED.c **** 	WriteCmd(0X10);  //关闭电荷泵
 358              		.loc 1 115 2 view .LVU65
 359 0002 8D20     		movs	r0, #141
 360 0004 FFF7FEFF 		bl	WriteCmd
 361              	.LVL45:
 116:USER/BSP/Src/bsp_OLED.c **** 	WriteCmd(0XAE);  //OLED休眠
 362              		.loc 1 116 2 view .LVU66
 363 0008 1020     		movs	r0, #16
 364 000a FFF7FEFF 		bl	WriteCmd
 365              	.LVL46:
 117:USER/BSP/Src/bsp_OLED.c **** }
 366              		.loc 1 117 2 view .LVU67
 367 000e AE20     		movs	r0, #174
 368 0010 FFF7FEFF 		bl	WriteCmd
 369              	.LVL47:
ARM GAS  /var/folders/cb/0rfcg7_d4zbdkgdchwlcykcc0000gn/T//ccKAJtwl.s 			page 14


 118:USER/BSP/Src/bsp_OLED.c **** 
 370              		.loc 1 118 1 is_stmt 0 view .LVU68
 371 0014 08BD     		pop	{r3, pc}
 372              		.cfi_endproc
 373              	.LFE135:
 375              		.section	.text.WriteDat,"ax",%progbits
 376              		.align	1
 377              		.global	WriteDat
 378              		.syntax unified
 379              		.thumb
 380              		.thumb_func
 381              		.fpu fpv4-sp-d16
 383              	WriteDat:
 384              	.LVL48:
 385              	.LFB144:
 332:USER/BSP/Src/bsp_OLED.c **** 
 333:USER/BSP/Src/bsp_OLED.c **** /**
 334:USER/BSP/Src/bsp_OLED.c ****  * @brief 对OLED进行显示数据写入
 335:USER/BSP/Src/bsp_OLED.c ****  * 
 336:USER/BSP/Src/bsp_OLED.c ****  * @param I2C_Data 
 337:USER/BSP/Src/bsp_OLED.c ****  */
 338:USER/BSP/Src/bsp_OLED.c **** void WriteDat(unsigned char I2C_Data)
 339:USER/BSP/Src/bsp_OLED.c **** {
 386              		.loc 1 339 1 is_stmt 1 view -0
 387              		.cfi_startproc
 388              		@ args = 0, pretend = 0, frame = 8
 389              		@ frame_needed = 0, uses_anonymous_args = 0
 390              		.loc 1 339 1 is_stmt 0 view .LVU70
 391 0000 00B5     		push	{lr}
 392              	.LCFI7:
 393              		.cfi_def_cfa_offset 4
 394              		.cfi_offset 14, -4
 395 0002 87B0     		sub	sp, sp, #28
 396              	.LCFI8:
 397              		.cfi_def_cfa_offset 32
 398 0004 8DF81700 		strb	r0, [sp, #23]
 340:USER/BSP/Src/bsp_OLED.c **** 	HAL_I2C_Mem_Write(&hi2c2,OLED0561_ADD,DAT,I2C_MEMADD_SIZE_8BIT,&I2C_Data,1,100);
 399              		.loc 1 340 2 is_stmt 1 view .LVU71
 400 0008 6423     		movs	r3, #100
 401 000a 0293     		str	r3, [sp, #8]
 402 000c 0123     		movs	r3, #1
 403 000e 0193     		str	r3, [sp, #4]
 404 0010 0DF11702 		add	r2, sp, #23
 405 0014 0092     		str	r2, [sp]
 406 0016 4022     		movs	r2, #64
 407 0018 7821     		movs	r1, #120
 408 001a 0348     		ldr	r0, .L19
 409              	.LVL49:
 410              		.loc 1 340 2 is_stmt 0 view .LVU72
 411 001c FFF7FEFF 		bl	HAL_I2C_Mem_Write
 412              	.LVL50:
 341:USER/BSP/Src/bsp_OLED.c **** }
 413              		.loc 1 341 1 view .LVU73
 414 0020 07B0     		add	sp, sp, #28
 415              	.LCFI9:
 416              		.cfi_def_cfa_offset 4
 417              		@ sp needed
ARM GAS  /var/folders/cb/0rfcg7_d4zbdkgdchwlcykcc0000gn/T//ccKAJtwl.s 			page 15


 418 0022 5DF804FB 		ldr	pc, [sp], #4
 419              	.L20:
 420 0026 00BF     		.align	2
 421              	.L19:
 422 0028 00000000 		.word	hi2c2
 423              		.cfi_endproc
 424              	.LFE144:
 426              		.section	.text.bsp_OLED_Fill,"ax",%progbits
 427              		.align	1
 428              		.global	bsp_OLED_Fill
 429              		.syntax unified
 430              		.thumb
 431              		.thumb_func
 432              		.fpu fpv4-sp-d16
 434              	bsp_OLED_Fill:
 435              	.LVL51:
 436              	.LFB132:
  75:USER/BSP/Src/bsp_OLED.c **** 	unsigned char m,n;
 437              		.loc 1 75 1 is_stmt 1 view -0
 438              		.cfi_startproc
 439              		@ args = 0, pretend = 0, frame = 0
 440              		@ frame_needed = 0, uses_anonymous_args = 0
  75:USER/BSP/Src/bsp_OLED.c **** 	unsigned char m,n;
 441              		.loc 1 75 1 is_stmt 0 view .LVU75
 442 0000 70B5     		push	{r4, r5, r6, lr}
 443              	.LCFI10:
 444              		.cfi_def_cfa_offset 16
 445              		.cfi_offset 4, -16
 446              		.cfi_offset 5, -12
 447              		.cfi_offset 6, -8
 448              		.cfi_offset 14, -4
 449 0002 0546     		mov	r5, r0
  76:USER/BSP/Src/bsp_OLED.c **** 	for(m=0;m<8;m++)
 450              		.loc 1 76 2 is_stmt 1 view .LVU76
  77:USER/BSP/Src/bsp_OLED.c ****     {
 451              		.loc 1 77 2 view .LVU77
 452              	.LVL52:
  77:USER/BSP/Src/bsp_OLED.c ****     {
 453              		.loc 1 77 7 is_stmt 0 view .LVU78
 454 0004 0026     		movs	r6, #0
  77:USER/BSP/Src/bsp_OLED.c ****     {
 455              		.loc 1 77 2 view .LVU79
 456 0006 01E0     		b	.L22
 457              	.LVL53:
 458              	.L28:
  77:USER/BSP/Src/bsp_OLED.c ****     {
 459              		.loc 1 77 14 is_stmt 1 discriminator 2 view .LVU80
  77:USER/BSP/Src/bsp_OLED.c ****     {
 460              		.loc 1 77 15 is_stmt 0 discriminator 2 view .LVU81
 461 0008 0136     		adds	r6, r6, #1
 462              	.LVL54:
  77:USER/BSP/Src/bsp_OLED.c ****     {
 463              		.loc 1 77 15 discriminator 2 view .LVU82
 464 000a F6B2     		uxtb	r6, r6
 465              	.LVL55:
 466              	.L22:
  77:USER/BSP/Src/bsp_OLED.c ****     {
ARM GAS  /var/folders/cb/0rfcg7_d4zbdkgdchwlcykcc0000gn/T//ccKAJtwl.s 			page 16


 467              		.loc 1 77 10 is_stmt 1 discriminator 1 view .LVU83
  77:USER/BSP/Src/bsp_OLED.c ****     {
 468              		.loc 1 77 2 is_stmt 0 discriminator 1 view .LVU84
 469 000c 072E     		cmp	r6, #7
 470 000e 14D8     		bhi	.L27
  79:USER/BSP/Src/bsp_OLED.c **** 		WriteCmd(0x00);		//low column start address
 471              		.loc 1 79 3 is_stmt 1 view .LVU85
 472 0010 A6F15000 		sub	r0, r6, #80
 473 0014 C0B2     		uxtb	r0, r0
 474 0016 FFF7FEFF 		bl	WriteCmd
 475              	.LVL56:
  80:USER/BSP/Src/bsp_OLED.c **** 		WriteCmd(0x10);		//high column start address
 476              		.loc 1 80 3 view .LVU86
 477 001a 0020     		movs	r0, #0
 478 001c FFF7FEFF 		bl	WriteCmd
 479              	.LVL57:
  81:USER/BSP/Src/bsp_OLED.c **** 		for(n=0;n<128;n++)
 480              		.loc 1 81 3 view .LVU87
 481 0020 1020     		movs	r0, #16
 482 0022 FFF7FEFF 		bl	WriteCmd
 483              	.LVL58:
  82:USER/BSP/Src/bsp_OLED.c ****         {
 484              		.loc 1 82 3 view .LVU88
  82:USER/BSP/Src/bsp_OLED.c ****         {
 485              		.loc 1 82 8 is_stmt 0 view .LVU89
 486 0026 0024     		movs	r4, #0
 487              	.LVL59:
 488              	.L23:
  82:USER/BSP/Src/bsp_OLED.c ****         {
 489              		.loc 1 82 11 is_stmt 1 discriminator 1 view .LVU90
  82:USER/BSP/Src/bsp_OLED.c ****         {
 490              		.loc 1 82 3 is_stmt 0 discriminator 1 view .LVU91
 491 0028 14F0800F 		tst	r4, #128
 492 002c ECD1     		bne	.L28
  84:USER/BSP/Src/bsp_OLED.c **** 		}
 493              		.loc 1 84 4 is_stmt 1 discriminator 3 view .LVU92
 494 002e 2846     		mov	r0, r5
 495 0030 FFF7FEFF 		bl	WriteDat
 496              	.LVL60:
  82:USER/BSP/Src/bsp_OLED.c ****         {
 497              		.loc 1 82 17 discriminator 3 view .LVU93
  82:USER/BSP/Src/bsp_OLED.c ****         {
 498              		.loc 1 82 18 is_stmt 0 discriminator 3 view .LVU94
 499 0034 0134     		adds	r4, r4, #1
 500              	.LVL61:
  82:USER/BSP/Src/bsp_OLED.c ****         {
 501              		.loc 1 82 18 discriminator 3 view .LVU95
 502 0036 E4B2     		uxtb	r4, r4
 503              	.LVL62:
  82:USER/BSP/Src/bsp_OLED.c ****         {
 504              		.loc 1 82 18 discriminator 3 view .LVU96
 505 0038 F6E7     		b	.L23
 506              	.LVL63:
 507              	.L27:
  87:USER/BSP/Src/bsp_OLED.c **** 
 508              		.loc 1 87 1 view .LVU97
 509 003a 70BD     		pop	{r4, r5, r6, pc}
ARM GAS  /var/folders/cb/0rfcg7_d4zbdkgdchwlcykcc0000gn/T//ccKAJtwl.s 			page 17


  87:USER/BSP/Src/bsp_OLED.c **** 
 510              		.loc 1 87 1 view .LVU98
 511              		.cfi_endproc
 512              	.LFE132:
 514              		.section	.text.bsp_OLED_CLR,"ax",%progbits
 515              		.align	1
 516              		.global	bsp_OLED_CLR
 517              		.syntax unified
 518              		.thumb
 519              		.thumb_func
 520              		.fpu fpv4-sp-d16
 522              	bsp_OLED_CLR:
 523              	.LFB133:
  94:USER/BSP/Src/bsp_OLED.c **** 	bsp_OLED_Fill(0x00);
 524              		.loc 1 94 1 is_stmt 1 view -0
 525              		.cfi_startproc
 526              		@ args = 0, pretend = 0, frame = 0
 527              		@ frame_needed = 0, uses_anonymous_args = 0
 528 0000 08B5     		push	{r3, lr}
 529              	.LCFI11:
 530              		.cfi_def_cfa_offset 8
 531              		.cfi_offset 3, -8
 532              		.cfi_offset 14, -4
  95:USER/BSP/Src/bsp_OLED.c **** }
 533              		.loc 1 95 2 view .LVU100
 534 0002 0020     		movs	r0, #0
 535 0004 FFF7FEFF 		bl	bsp_OLED_Fill
 536              	.LVL64:
  96:USER/BSP/Src/bsp_OLED.c **** 
 537              		.loc 1 96 1 is_stmt 0 view .LVU101
 538 0008 08BD     		pop	{r3, pc}
 539              		.cfi_endproc
 540              	.LFE133:
 542              		.section	.text.bsp_OLED_ShowStr,"ax",%progbits
 543              		.align	1
 544              		.global	bsp_OLED_ShowStr
 545              		.syntax unified
 546              		.thumb
 547              		.thumb_func
 548              		.fpu fpv4-sp-d16
 550              	bsp_OLED_ShowStr:
 551              	.LVL65:
 552              	.LFB136:
 131:USER/BSP/Src/bsp_OLED.c **** 	unsigned char c = 0,i = 0,j = 0;
 553              		.loc 1 131 1 is_stmt 1 view -0
 554              		.cfi_startproc
 555              		@ args = 0, pretend = 0, frame = 0
 556              		@ frame_needed = 0, uses_anonymous_args = 0
 131:USER/BSP/Src/bsp_OLED.c **** 	unsigned char c = 0,i = 0,j = 0;
 557              		.loc 1 131 1 is_stmt 0 view .LVU103
 558 0000 2DE9F843 		push	{r3, r4, r5, r6, r7, r8, r9, lr}
 559              	.LCFI12:
 560              		.cfi_def_cfa_offset 32
 561              		.cfi_offset 3, -32
 562              		.cfi_offset 4, -28
 563              		.cfi_offset 5, -24
 564              		.cfi_offset 6, -20
ARM GAS  /var/folders/cb/0rfcg7_d4zbdkgdchwlcykcc0000gn/T//ccKAJtwl.s 			page 18


 565              		.cfi_offset 7, -16
 566              		.cfi_offset 8, -12
 567              		.cfi_offset 9, -8
 568              		.cfi_offset 14, -4
 569 0004 0646     		mov	r6, r0
 570 0006 0F46     		mov	r7, r1
 571 0008 9046     		mov	r8, r2
 132:USER/BSP/Src/bsp_OLED.c **** 	switch(TextSize)
 572              		.loc 1 132 2 is_stmt 1 view .LVU104
 573              	.LVL66:
 133:USER/BSP/Src/bsp_OLED.c ****     {
 574              		.loc 1 133 2 view .LVU105
 575 000a 012B     		cmp	r3, #1
 576 000c 26D0     		beq	.L45
 577 000e 022B     		cmp	r3, #2
 578 0010 5AD0     		beq	.L46
 579              	.LVL67:
 580              	.L31:
 173:USER/BSP/Src/bsp_OLED.c **** 
 581              		.loc 1 173 1 is_stmt 0 view .LVU106
 582 0012 BDE8F883 		pop	{r3, r4, r5, r6, r7, r8, r9, pc}
 583              	.LVL68:
 584              	.L48:
 148:USER/BSP/Src/bsp_OLED.c **** 				j++;
 585              		.loc 1 148 5 is_stmt 1 view .LVU107
 148:USER/BSP/Src/bsp_OLED.c **** 				j++;
 586              		.loc 1 148 7 is_stmt 0 view .LVU108
 587 0016 0636     		adds	r6, r6, #6
 588              	.LVL69:
 148:USER/BSP/Src/bsp_OLED.c **** 				j++;
 589              		.loc 1 148 7 view .LVU109
 590 0018 F6B2     		uxtb	r6, r6
 591              	.LVL70:
 149:USER/BSP/Src/bsp_OLED.c **** 			}
 592              		.loc 1 149 5 is_stmt 1 view .LVU110
 149:USER/BSP/Src/bsp_OLED.c **** 			}
 593              		.loc 1 149 6 is_stmt 0 view .LVU111
 594 001a 09F10109 		add	r9, r9, #1
 595              	.LVL71:
 149:USER/BSP/Src/bsp_OLED.c **** 			}
 596              		.loc 1 149 6 view .LVU112
 597 001e 5FFA89F9 		uxtb	r9, r9
 598              	.LVL72:
 599              	.L32:
 137:USER/BSP/Src/bsp_OLED.c ****             {
 600              		.loc 1 137 9 is_stmt 1 view .LVU113
 137:USER/BSP/Src/bsp_OLED.c ****             {
 601              		.loc 1 137 12 is_stmt 0 view .LVU114
 602 0022 18F80950 		ldrb	r5, [r8, r9]	@ zero_extendqisi2
 137:USER/BSP/Src/bsp_OLED.c ****             {
 603              		.loc 1 137 9 view .LVU115
 604 0026 002D     		cmp	r5, #0
 605 0028 F3D0     		beq	.L31
 139:USER/BSP/Src/bsp_OLED.c **** 				if(x > 126)
 606              		.loc 1 139 5 is_stmt 1 view .LVU116
 139:USER/BSP/Src/bsp_OLED.c **** 				if(x > 126)
 607              		.loc 1 139 7 is_stmt 0 view .LVU117
ARM GAS  /var/folders/cb/0rfcg7_d4zbdkgdchwlcykcc0000gn/T//ccKAJtwl.s 			page 19


 608 002a 203D     		subs	r5, r5, #32
 609 002c EDB2     		uxtb	r5, r5
 610              	.LVL73:
 140:USER/BSP/Src/bsp_OLED.c ****                 {
 611              		.loc 1 140 5 is_stmt 1 view .LVU118
 140:USER/BSP/Src/bsp_OLED.c ****                 {
 612              		.loc 1 140 7 is_stmt 0 view .LVU119
 613 002e 7E2E     		cmp	r6, #126
 614 0030 02D9     		bls	.L35
 142:USER/BSP/Src/bsp_OLED.c **** 					y++;
 615              		.loc 1 142 6 is_stmt 1 view .LVU120
 616              	.LVL74:
 143:USER/BSP/Src/bsp_OLED.c **** 				}
 617              		.loc 1 143 6 view .LVU121
 143:USER/BSP/Src/bsp_OLED.c **** 				}
 618              		.loc 1 143 7 is_stmt 0 view .LVU122
 619 0032 0137     		adds	r7, r7, #1
 620              	.LVL75:
 143:USER/BSP/Src/bsp_OLED.c **** 				}
 621              		.loc 1 143 7 view .LVU123
 622 0034 FFB2     		uxtb	r7, r7
 623              	.LVL76:
 142:USER/BSP/Src/bsp_OLED.c **** 					y++;
 624              		.loc 1 142 8 view .LVU124
 625 0036 0026     		movs	r6, #0
 626              	.LVL77:
 627              	.L35:
 145:USER/BSP/Src/bsp_OLED.c **** 				for(i=0;i<6;i++)
 628              		.loc 1 145 5 is_stmt 1 view .LVU125
 629 0038 3946     		mov	r1, r7
 630 003a 3046     		mov	r0, r6
 631 003c FFF7FEFF 		bl	bsp_OLED_SetPos
 632              	.LVL78:
 146:USER/BSP/Src/bsp_OLED.c **** 					WriteDat(F6x8[c][i]);
 633              		.loc 1 146 5 view .LVU126
 146:USER/BSP/Src/bsp_OLED.c **** 					WriteDat(F6x8[c][i]);
 634              		.loc 1 146 10 is_stmt 0 view .LVU127
 635 0040 0024     		movs	r4, #0
 636              	.LVL79:
 637              	.L36:
 146:USER/BSP/Src/bsp_OLED.c **** 					WriteDat(F6x8[c][i]);
 638              		.loc 1 146 13 is_stmt 1 discriminator 1 view .LVU128
 146:USER/BSP/Src/bsp_OLED.c **** 					WriteDat(F6x8[c][i]);
 639              		.loc 1 146 5 is_stmt 0 discriminator 1 view .LVU129
 640 0042 052C     		cmp	r4, #5
 641 0044 E7D8     		bhi	.L48
 147:USER/BSP/Src/bsp_OLED.c **** 				x += 6;
 642              		.loc 1 147 6 is_stmt 1 discriminator 3 view .LVU130
 643 0046 05EB4503 		add	r3, r5, r5, lsl #1
 644 004a 214A     		ldr	r2, .L49
 645 004c 02EB4303 		add	r3, r2, r3, lsl #1
 646 0050 185D     		ldrb	r0, [r3, r4]	@ zero_extendqisi2
 647 0052 FFF7FEFF 		bl	WriteDat
 648              	.LVL80:
 146:USER/BSP/Src/bsp_OLED.c **** 					WriteDat(F6x8[c][i]);
 649              		.loc 1 146 17 discriminator 3 view .LVU131
 146:USER/BSP/Src/bsp_OLED.c **** 					WriteDat(F6x8[c][i]);
ARM GAS  /var/folders/cb/0rfcg7_d4zbdkgdchwlcykcc0000gn/T//ccKAJtwl.s 			page 20


 650              		.loc 1 146 18 is_stmt 0 discriminator 3 view .LVU132
 651 0056 0134     		adds	r4, r4, #1
 652              	.LVL81:
 146:USER/BSP/Src/bsp_OLED.c **** 					WriteDat(F6x8[c][i]);
 653              		.loc 1 146 18 discriminator 3 view .LVU133
 654 0058 E4B2     		uxtb	r4, r4
 655              	.LVL82:
 146:USER/BSP/Src/bsp_OLED.c **** 					WriteDat(F6x8[c][i]);
 656              		.loc 1 146 18 discriminator 3 view .LVU134
 657 005a F2E7     		b	.L36
 658              	.LVL83:
 659              	.L45:
 133:USER/BSP/Src/bsp_OLED.c ****     {
 660              		.loc 1 133 2 view .LVU135
 661 005c 4FF00009 		mov	r9, #0
 662 0060 DFE7     		b	.L32
 663              	.LVL84:
 664              	.L41:
 164:USER/BSP/Src/bsp_OLED.c **** 				bsp_OLED_SetPos(x,y+1);
 665              		.loc 1 164 6 is_stmt 1 discriminator 3 view .LVU136
 164:USER/BSP/Src/bsp_OLED.c **** 				bsp_OLED_SetPos(x,y+1);
 666              		.loc 1 164 25 is_stmt 0 discriminator 3 view .LVU137
 667 0062 04EB0513 		add	r3, r4, r5, lsl #4
 164:USER/BSP/Src/bsp_OLED.c **** 				bsp_OLED_SetPos(x,y+1);
 668              		.loc 1 164 6 discriminator 3 view .LVU138
 669 0066 1B4A     		ldr	r2, .L49+4
 670 0068 D05C     		ldrb	r0, [r2, r3]	@ zero_extendqisi2
 671 006a FFF7FEFF 		bl	WriteDat
 672              	.LVL85:
 163:USER/BSP/Src/bsp_OLED.c **** 					WriteDat(F8X16[c*16+i]);
 673              		.loc 1 163 17 is_stmt 1 discriminator 3 view .LVU139
 163:USER/BSP/Src/bsp_OLED.c **** 					WriteDat(F8X16[c*16+i]);
 674              		.loc 1 163 18 is_stmt 0 discriminator 3 view .LVU140
 675 006e 0134     		adds	r4, r4, #1
 676              	.LVL86:
 163:USER/BSP/Src/bsp_OLED.c **** 					WriteDat(F8X16[c*16+i]);
 677              		.loc 1 163 18 discriminator 3 view .LVU141
 678 0070 E4B2     		uxtb	r4, r4
 679              	.LVL87:
 680              	.L40:
 163:USER/BSP/Src/bsp_OLED.c **** 					WriteDat(F8X16[c*16+i]);
 681              		.loc 1 163 13 is_stmt 1 discriminator 1 view .LVU142
 163:USER/BSP/Src/bsp_OLED.c **** 					WriteDat(F8X16[c*16+i]);
 682              		.loc 1 163 5 is_stmt 0 discriminator 1 view .LVU143
 683 0072 072C     		cmp	r4, #7
 684 0074 F5D9     		bls	.L41
 165:USER/BSP/Src/bsp_OLED.c **** 				for(i=0;i<8;i++)
 685              		.loc 1 165 5 is_stmt 1 view .LVU144
 686 0076 791C     		adds	r1, r7, #1
 687 0078 C9B2     		uxtb	r1, r1
 688 007a 3046     		mov	r0, r6
 689 007c FFF7FEFF 		bl	bsp_OLED_SetPos
 690              	.LVL88:
 166:USER/BSP/Src/bsp_OLED.c **** 					WriteDat(F8X16[c*16+i+8]);
 691              		.loc 1 166 5 view .LVU145
 166:USER/BSP/Src/bsp_OLED.c **** 					WriteDat(F8X16[c*16+i+8]);
 692              		.loc 1 166 10 is_stmt 0 view .LVU146
ARM GAS  /var/folders/cb/0rfcg7_d4zbdkgdchwlcykcc0000gn/T//ccKAJtwl.s 			page 21


 693 0080 0024     		movs	r4, #0
 166:USER/BSP/Src/bsp_OLED.c **** 					WriteDat(F8X16[c*16+i+8]);
 694              		.loc 1 166 5 view .LVU147
 695 0082 08E0     		b	.L42
 696              	.LVL89:
 697              	.L43:
 167:USER/BSP/Src/bsp_OLED.c **** 				x += 8;
 698              		.loc 1 167 6 is_stmt 1 discriminator 3 view .LVU148
 167:USER/BSP/Src/bsp_OLED.c **** 				x += 8;
 699              		.loc 1 167 25 is_stmt 0 discriminator 3 view .LVU149
 700 0084 04EB0513 		add	r3, r4, r5, lsl #4
 167:USER/BSP/Src/bsp_OLED.c **** 				x += 8;
 701              		.loc 1 167 27 discriminator 3 view .LVU150
 702 0088 0833     		adds	r3, r3, #8
 167:USER/BSP/Src/bsp_OLED.c **** 				x += 8;
 703              		.loc 1 167 6 discriminator 3 view .LVU151
 704 008a 124A     		ldr	r2, .L49+4
 705 008c D05C     		ldrb	r0, [r2, r3]	@ zero_extendqisi2
 706 008e FFF7FEFF 		bl	WriteDat
 707              	.LVL90:
 166:USER/BSP/Src/bsp_OLED.c **** 					WriteDat(F8X16[c*16+i+8]);
 708              		.loc 1 166 17 is_stmt 1 discriminator 3 view .LVU152
 166:USER/BSP/Src/bsp_OLED.c **** 					WriteDat(F8X16[c*16+i+8]);
 709              		.loc 1 166 18 is_stmt 0 discriminator 3 view .LVU153
 710 0092 0134     		adds	r4, r4, #1
 711              	.LVL91:
 166:USER/BSP/Src/bsp_OLED.c **** 					WriteDat(F8X16[c*16+i+8]);
 712              		.loc 1 166 18 discriminator 3 view .LVU154
 713 0094 E4B2     		uxtb	r4, r4
 714              	.LVL92:
 715              	.L42:
 166:USER/BSP/Src/bsp_OLED.c **** 					WriteDat(F8X16[c*16+i+8]);
 716              		.loc 1 166 13 is_stmt 1 discriminator 1 view .LVU155
 166:USER/BSP/Src/bsp_OLED.c **** 					WriteDat(F8X16[c*16+i+8]);
 717              		.loc 1 166 5 is_stmt 0 discriminator 1 view .LVU156
 718 0096 072C     		cmp	r4, #7
 719 0098 F4D9     		bls	.L43
 168:USER/BSP/Src/bsp_OLED.c **** 				j++;
 720              		.loc 1 168 5 is_stmt 1 view .LVU157
 168:USER/BSP/Src/bsp_OLED.c **** 				j++;
 721              		.loc 1 168 7 is_stmt 0 view .LVU158
 722 009a 0836     		adds	r6, r6, #8
 723              	.LVL93:
 168:USER/BSP/Src/bsp_OLED.c **** 				j++;
 724              		.loc 1 168 7 view .LVU159
 725 009c F6B2     		uxtb	r6, r6
 726              	.LVL94:
 169:USER/BSP/Src/bsp_OLED.c **** 			}
 727              		.loc 1 169 5 is_stmt 1 view .LVU160
 169:USER/BSP/Src/bsp_OLED.c **** 			}
 728              		.loc 1 169 6 is_stmt 0 view .LVU161
 729 009e 09F10109 		add	r9, r9, #1
 730              	.LVL95:
 169:USER/BSP/Src/bsp_OLED.c **** 			}
 731              		.loc 1 169 6 view .LVU162
 732 00a2 5FFA89F9 		uxtb	r9, r9
 733              	.LVL96:
ARM GAS  /var/folders/cb/0rfcg7_d4zbdkgdchwlcykcc0000gn/T//ccKAJtwl.s 			page 22


 734              	.L33:
 154:USER/BSP/Src/bsp_OLED.c ****             {
 735              		.loc 1 154 9 is_stmt 1 view .LVU163
 154:USER/BSP/Src/bsp_OLED.c ****             {
 736              		.loc 1 154 12 is_stmt 0 view .LVU164
 737 00a6 18F80950 		ldrb	r5, [r8, r9]	@ zero_extendqisi2
 154:USER/BSP/Src/bsp_OLED.c ****             {
 738              		.loc 1 154 9 view .LVU165
 739 00aa 002D     		cmp	r5, #0
 740 00ac B1D0     		beq	.L31
 156:USER/BSP/Src/bsp_OLED.c **** 				if(x > 120)
 741              		.loc 1 156 5 is_stmt 1 view .LVU166
 156:USER/BSP/Src/bsp_OLED.c **** 				if(x > 120)
 742              		.loc 1 156 7 is_stmt 0 view .LVU167
 743 00ae 203D     		subs	r5, r5, #32
 744 00b0 EDB2     		uxtb	r5, r5
 745              	.LVL97:
 157:USER/BSP/Src/bsp_OLED.c ****                 {
 746              		.loc 1 157 5 is_stmt 1 view .LVU168
 157:USER/BSP/Src/bsp_OLED.c ****                 {
 747              		.loc 1 157 7 is_stmt 0 view .LVU169
 748 00b2 782E     		cmp	r6, #120
 749 00b4 02D9     		bls	.L39
 159:USER/BSP/Src/bsp_OLED.c **** 					y++;
 750              		.loc 1 159 6 is_stmt 1 view .LVU170
 751              	.LVL98:
 160:USER/BSP/Src/bsp_OLED.c **** 				}
 752              		.loc 1 160 6 view .LVU171
 160:USER/BSP/Src/bsp_OLED.c **** 				}
 753              		.loc 1 160 7 is_stmt 0 view .LVU172
 754 00b6 0137     		adds	r7, r7, #1
 755              	.LVL99:
 160:USER/BSP/Src/bsp_OLED.c **** 				}
 756              		.loc 1 160 7 view .LVU173
 757 00b8 FFB2     		uxtb	r7, r7
 758              	.LVL100:
 159:USER/BSP/Src/bsp_OLED.c **** 					y++;
 759              		.loc 1 159 8 view .LVU174
 760 00ba 0026     		movs	r6, #0
 761              	.LVL101:
 762              	.L39:
 162:USER/BSP/Src/bsp_OLED.c **** 				for(i=0;i<8;i++)
 763              		.loc 1 162 5 is_stmt 1 view .LVU175
 764 00bc 3946     		mov	r1, r7
 765 00be 3046     		mov	r0, r6
 766 00c0 FFF7FEFF 		bl	bsp_OLED_SetPos
 767              	.LVL102:
 163:USER/BSP/Src/bsp_OLED.c **** 					WriteDat(F8X16[c*16+i]);
 768              		.loc 1 163 5 view .LVU176
 163:USER/BSP/Src/bsp_OLED.c **** 					WriteDat(F8X16[c*16+i]);
 769              		.loc 1 163 10 is_stmt 0 view .LVU177
 770 00c4 0024     		movs	r4, #0
 163:USER/BSP/Src/bsp_OLED.c **** 					WriteDat(F8X16[c*16+i]);
 771              		.loc 1 163 5 view .LVU178
 772 00c6 D4E7     		b	.L40
 773              	.LVL103:
 774              	.L46:
ARM GAS  /var/folders/cb/0rfcg7_d4zbdkgdchwlcykcc0000gn/T//ccKAJtwl.s 			page 23


 133:USER/BSP/Src/bsp_OLED.c ****     {
 775              		.loc 1 133 2 view .LVU179
 776 00c8 4FF00009 		mov	r9, #0
 777 00cc EBE7     		b	.L33
 778              	.L50:
 779 00ce 00BF     		.align	2
 780              	.L49:
 781 00d0 00000000 		.word	.LANCHOR0
 782 00d4 00000000 		.word	.LANCHOR1
 783              		.cfi_endproc
 784              	.LFE136:
 786              		.section	.text.bsp_OLED_ShowCN,"ax",%progbits
 787              		.align	1
 788              		.global	bsp_OLED_ShowCN
 789              		.syntax unified
 790              		.thumb
 791              		.thumb_func
 792              		.fpu fpv4-sp-d16
 794              	bsp_OLED_ShowCN:
 795              	.LVL104:
 796              	.LFB137:
 184:USER/BSP/Src/bsp_OLED.c **** 	unsigned char wm=0;
 797              		.loc 1 184 1 is_stmt 1 view -0
 798              		.cfi_startproc
 799              		@ args = 0, pretend = 0, frame = 0
 800              		@ frame_needed = 0, uses_anonymous_args = 0
 184:USER/BSP/Src/bsp_OLED.c **** 	unsigned char wm=0;
 801              		.loc 1 184 1 is_stmt 0 view .LVU181
 802 0000 F8B5     		push	{r3, r4, r5, r6, r7, lr}
 803              	.LCFI13:
 804              		.cfi_def_cfa_offset 24
 805              		.cfi_offset 3, -24
 806              		.cfi_offset 4, -20
 807              		.cfi_offset 5, -16
 808              		.cfi_offset 6, -12
 809              		.cfi_offset 7, -8
 810              		.cfi_offset 14, -4
 811 0002 0746     		mov	r7, r0
 812 0004 0E46     		mov	r6, r1
 185:USER/BSP/Src/bsp_OLED.c **** 	unsigned int  adder=32*N;
 813              		.loc 1 185 2 is_stmt 1 view .LVU182
 814              	.LVL105:
 186:USER/BSP/Src/bsp_OLED.c **** 	bsp_OLED_SetPos(x , y);
 815              		.loc 1 186 2 view .LVU183
 186:USER/BSP/Src/bsp_OLED.c **** 	bsp_OLED_SetPos(x , y);
 816              		.loc 1 186 24 is_stmt 0 view .LVU184
 817 0006 5401     		lsls	r4, r2, #5
 818              	.LVL106:
 187:USER/BSP/Src/bsp_OLED.c **** 	for(wm = 0;wm < 16;wm++)
 819              		.loc 1 187 2 is_stmt 1 view .LVU185
 820 0008 FFF7FEFF 		bl	bsp_OLED_SetPos
 821              	.LVL107:
 188:USER/BSP/Src/bsp_OLED.c **** 	{
 822              		.loc 1 188 2 view .LVU186
 188:USER/BSP/Src/bsp_OLED.c **** 	{
 823              		.loc 1 188 9 is_stmt 0 view .LVU187
 824 000c 0025     		movs	r5, #0
ARM GAS  /var/folders/cb/0rfcg7_d4zbdkgdchwlcykcc0000gn/T//ccKAJtwl.s 			page 24


 825              	.LVL108:
 826              	.L52:
 188:USER/BSP/Src/bsp_OLED.c **** 	{
 827              		.loc 1 188 13 is_stmt 1 discriminator 1 view .LVU188
 188:USER/BSP/Src/bsp_OLED.c **** 	{
 828              		.loc 1 188 2 is_stmt 0 discriminator 1 view .LVU189
 829 000e 0F2D     		cmp	r5, #15
 830 0010 07D8     		bhi	.L57
 190:USER/BSP/Src/bsp_OLED.c **** 		adder += 1;
 831              		.loc 1 190 3 is_stmt 1 discriminator 3 view .LVU190
 832 0012 0C4B     		ldr	r3, .L59
 833 0014 185D     		ldrb	r0, [r3, r4]	@ zero_extendqisi2
 834 0016 FFF7FEFF 		bl	WriteDat
 835              	.LVL109:
 191:USER/BSP/Src/bsp_OLED.c **** 	}
 836              		.loc 1 191 3 discriminator 3 view .LVU191
 191:USER/BSP/Src/bsp_OLED.c **** 	}
 837              		.loc 1 191 9 is_stmt 0 discriminator 3 view .LVU192
 838 001a 0134     		adds	r4, r4, #1
 839              	.LVL110:
 188:USER/BSP/Src/bsp_OLED.c **** 	{
 840              		.loc 1 188 21 is_stmt 1 discriminator 3 view .LVU193
 188:USER/BSP/Src/bsp_OLED.c **** 	{
 841              		.loc 1 188 23 is_stmt 0 discriminator 3 view .LVU194
 842 001c 0135     		adds	r5, r5, #1
 843              	.LVL111:
 188:USER/BSP/Src/bsp_OLED.c **** 	{
 844              		.loc 1 188 23 discriminator 3 view .LVU195
 845 001e EDB2     		uxtb	r5, r5
 846              	.LVL112:
 188:USER/BSP/Src/bsp_OLED.c **** 	{
 847              		.loc 1 188 23 discriminator 3 view .LVU196
 848 0020 F5E7     		b	.L52
 849              	.L57:
 193:USER/BSP/Src/bsp_OLED.c **** 	for(wm = 0;wm < 16;wm++)
 850              		.loc 1 193 2 is_stmt 1 view .LVU197
 851 0022 711C     		adds	r1, r6, #1
 852 0024 C9B2     		uxtb	r1, r1
 853 0026 3846     		mov	r0, r7
 854 0028 FFF7FEFF 		bl	bsp_OLED_SetPos
 855              	.LVL113:
 194:USER/BSP/Src/bsp_OLED.c **** 	{
 856              		.loc 1 194 2 view .LVU198
 194:USER/BSP/Src/bsp_OLED.c **** 	{
 857              		.loc 1 194 9 is_stmt 0 view .LVU199
 858 002c 0025     		movs	r5, #0
 859              	.LVL114:
 860              	.L54:
 194:USER/BSP/Src/bsp_OLED.c **** 	{
 861              		.loc 1 194 13 is_stmt 1 discriminator 1 view .LVU200
 194:USER/BSP/Src/bsp_OLED.c **** 	{
 862              		.loc 1 194 2 is_stmt 0 discriminator 1 view .LVU201
 863 002e 0F2D     		cmp	r5, #15
 864 0030 07D8     		bhi	.L58
 196:USER/BSP/Src/bsp_OLED.c **** 		adder += 1;
 865              		.loc 1 196 3 is_stmt 1 discriminator 3 view .LVU202
 866 0032 044B     		ldr	r3, .L59
ARM GAS  /var/folders/cb/0rfcg7_d4zbdkgdchwlcykcc0000gn/T//ccKAJtwl.s 			page 25


 867 0034 185D     		ldrb	r0, [r3, r4]	@ zero_extendqisi2
 868 0036 FFF7FEFF 		bl	WriteDat
 869              	.LVL115:
 197:USER/BSP/Src/bsp_OLED.c **** 	}
 870              		.loc 1 197 3 discriminator 3 view .LVU203
 197:USER/BSP/Src/bsp_OLED.c **** 	}
 871              		.loc 1 197 9 is_stmt 0 discriminator 3 view .LVU204
 872 003a 0134     		adds	r4, r4, #1
 873              	.LVL116:
 194:USER/BSP/Src/bsp_OLED.c **** 	{
 874              		.loc 1 194 21 is_stmt 1 discriminator 3 view .LVU205
 194:USER/BSP/Src/bsp_OLED.c **** 	{
 875              		.loc 1 194 23 is_stmt 0 discriminator 3 view .LVU206
 876 003c 0135     		adds	r5, r5, #1
 877              	.LVL117:
 194:USER/BSP/Src/bsp_OLED.c **** 	{
 878              		.loc 1 194 23 discriminator 3 view .LVU207
 879 003e EDB2     		uxtb	r5, r5
 880              	.LVL118:
 194:USER/BSP/Src/bsp_OLED.c **** 	{
 881              		.loc 1 194 23 discriminator 3 view .LVU208
 882 0040 F5E7     		b	.L54
 883              	.L58:
 199:USER/BSP/Src/bsp_OLED.c **** 
 884              		.loc 1 199 1 view .LVU209
 885 0042 F8BD     		pop	{r3, r4, r5, r6, r7, pc}
 886              	.LVL119:
 887              	.L60:
 199:USER/BSP/Src/bsp_OLED.c **** 
 888              		.loc 1 199 1 view .LVU210
 889              		.align	2
 890              	.L59:
 891 0044 00000000 		.word	.LANCHOR2
 892              		.cfi_endproc
 893              	.LFE137:
 895              		.section	.text.bsp_OLED_ShowCN_STR,"ax",%progbits
 896              		.align	1
 897              		.global	bsp_OLED_ShowCN_STR
 898              		.syntax unified
 899              		.thumb
 900              		.thumb_func
 901              		.fpu fpv4-sp-d16
 903              	bsp_OLED_ShowCN_STR:
 904              	.LVL120:
 905              	.LFB138:
 211:USER/BSP/Src/bsp_OLED.c **** 	u8 i;
 906              		.loc 1 211 1 is_stmt 1 view -0
 907              		.cfi_startproc
 908              		@ args = 0, pretend = 0, frame = 0
 909              		@ frame_needed = 0, uses_anonymous_args = 0
 211:USER/BSP/Src/bsp_OLED.c **** 	u8 i;
 910              		.loc 1 211 1 is_stmt 0 view .LVU212
 911 0000 2DE9F041 		push	{r4, r5, r6, r7, r8, lr}
 912              	.LCFI14:
 913              		.cfi_def_cfa_offset 24
 914              		.cfi_offset 4, -24
 915              		.cfi_offset 5, -20
ARM GAS  /var/folders/cb/0rfcg7_d4zbdkgdchwlcykcc0000gn/T//ccKAJtwl.s 			page 26


 916              		.cfi_offset 6, -16
 917              		.cfi_offset 7, -12
 918              		.cfi_offset 8, -8
 919              		.cfi_offset 14, -4
 920 0004 8046     		mov	r8, r0
 921 0006 0F46     		mov	r7, r1
 922 0008 1646     		mov	r6, r2
 923 000a 1D46     		mov	r5, r3
 212:USER/BSP/Src/bsp_OLED.c **** 	for(i=0;i<num;i++)
 924              		.loc 1 212 2 is_stmt 1 view .LVU213
 213:USER/BSP/Src/bsp_OLED.c ****     {
 925              		.loc 1 213 2 view .LVU214
 926              	.LVL121:
 213:USER/BSP/Src/bsp_OLED.c ****     {
 927              		.loc 1 213 7 is_stmt 0 view .LVU215
 928 000c 0024     		movs	r4, #0
 929              	.LVL122:
 930              	.L62:
 213:USER/BSP/Src/bsp_OLED.c ****     {
 931              		.loc 1 213 10 is_stmt 1 discriminator 1 view .LVU216
 213:USER/BSP/Src/bsp_OLED.c ****     {
 932              		.loc 1 213 2 is_stmt 0 discriminator 1 view .LVU217
 933 000e AC42     		cmp	r4, r5
 934 0010 0AD2     		bcs	.L65
 215:USER/BSP/Src/bsp_OLED.c ****     }    //OLED显示标题
 935              		.loc 1 215 9 is_stmt 1 discriminator 3 view .LVU218
 936 0012 A219     		adds	r2, r4, r6
 937 0014 08EB0410 		add	r0, r8, r4, lsl #4
 938 0018 D2B2     		uxtb	r2, r2
 939 001a 3946     		mov	r1, r7
 940 001c C0B2     		uxtb	r0, r0
 941 001e FFF7FEFF 		bl	bsp_OLED_ShowCN
 942              	.LVL123:
 213:USER/BSP/Src/bsp_OLED.c ****     {
 943              		.loc 1 213 16 discriminator 3 view .LVU219
 213:USER/BSP/Src/bsp_OLED.c ****     {
 944              		.loc 1 213 17 is_stmt 0 discriminator 3 view .LVU220
 945 0022 0134     		adds	r4, r4, #1
 946              	.LVL124:
 213:USER/BSP/Src/bsp_OLED.c ****     {
 947              		.loc 1 213 17 discriminator 3 view .LVU221
 948 0024 E4B2     		uxtb	r4, r4
 949              	.LVL125:
 213:USER/BSP/Src/bsp_OLED.c ****     {
 950              		.loc 1 213 17 discriminator 3 view .LVU222
 951 0026 F2E7     		b	.L62
 952              	.L65:
 217:USER/BSP/Src/bsp_OLED.c **** 
 953              		.loc 1 217 1 view .LVU223
 954 0028 BDE8F081 		pop	{r4, r5, r6, r7, r8, pc}
 217:USER/BSP/Src/bsp_OLED.c **** 
 955              		.loc 1 217 1 view .LVU224
 956              		.cfi_endproc
 957              	.LFE138:
 959              		.section	.text.bsp_OLED_DrawBMP,"ax",%progbits
 960              		.align	1
 961              		.global	bsp_OLED_DrawBMP
ARM GAS  /var/folders/cb/0rfcg7_d4zbdkgdchwlcykcc0000gn/T//ccKAJtwl.s 			page 27


 962              		.syntax unified
 963              		.thumb
 964              		.thumb_func
 965              		.fpu fpv4-sp-d16
 967              	bsp_OLED_DrawBMP:
 968              	.LVL126:
 969              	.LFB139:
 233:USER/BSP/Src/bsp_OLED.c **** 	unsigned int j=0;
 970              		.loc 1 233 1 is_stmt 1 view -0
 971              		.cfi_startproc
 972              		@ args = 4, pretend = 0, frame = 0
 973              		@ frame_needed = 0, uses_anonymous_args = 0
 233:USER/BSP/Src/bsp_OLED.c **** 	unsigned int j=0;
 974              		.loc 1 233 1 is_stmt 0 view .LVU226
 975 0000 2DE9F84F 		push	{r3, r4, r5, r6, r7, r8, r9, r10, fp, lr}
 976              	.LCFI15:
 977              		.cfi_def_cfa_offset 40
 978              		.cfi_offset 3, -40
 979              		.cfi_offset 4, -36
 980              		.cfi_offset 5, -32
 981              		.cfi_offset 6, -28
 982              		.cfi_offset 7, -24
 983              		.cfi_offset 8, -20
 984              		.cfi_offset 9, -16
 985              		.cfi_offset 10, -12
 986              		.cfi_offset 11, -8
 987              		.cfi_offset 14, -4
 988 0004 8146     		mov	r9, r0
 989 0006 8846     		mov	r8, r1
 990 0008 1646     		mov	r6, r2
 991 000a 9A46     		mov	r10, r3
 992 000c 0A9F     		ldr	r7, [sp, #40]
 234:USER/BSP/Src/bsp_OLED.c **** 	unsigned char x,y;
 993              		.loc 1 234 2 is_stmt 1 view .LVU227
 994              	.LVL127:
 235:USER/BSP/Src/bsp_OLED.c **** 
 995              		.loc 1 235 2 view .LVU228
 237:USER/BSP/Src/bsp_OLED.c **** 		y = y1/8;
 996              		.loc 1 237 3 view .LVU229
 246:USER/BSP/Src/bsp_OLED.c **** 		}
 997              		.loc 1 246 18 is_stmt 0 view .LVU230
 998 000e 4FF0000B 		mov	fp, #0
 999 0012 0EE0     		b	.L67
 1000              	.LVL128:
 1001              	.L69:
 246:USER/BSP/Src/bsp_OLED.c **** 		}
 1002              		.loc 1 246 4 is_stmt 1 discriminator 3 view .LVU231
 246:USER/BSP/Src/bsp_OLED.c **** 		}
 1003              		.loc 1 246 18 is_stmt 0 discriminator 3 view .LVU232
 1004 0014 0BF10105 		add	r5, fp, #1
 1005              	.LVL129:
 246:USER/BSP/Src/bsp_OLED.c **** 		}
 1006              		.loc 1 246 4 discriminator 3 view .LVU233
 1007 0018 17F80B00 		ldrb	r0, [r7, fp]	@ zero_extendqisi2
 1008 001c FFF7FEFF 		bl	WriteDat
 1009              	.LVL130:
 244:USER/BSP/Src/bsp_OLED.c **** 		{
ARM GAS  /var/folders/cb/0rfcg7_d4zbdkgdchwlcykcc0000gn/T//ccKAJtwl.s 			page 28


 1010              		.loc 1 244 23 is_stmt 1 discriminator 3 view .LVU234
 244:USER/BSP/Src/bsp_OLED.c **** 		{
 1011              		.loc 1 244 24 is_stmt 0 discriminator 3 view .LVU235
 1012 0020 0134     		adds	r4, r4, #1
 1013              	.LVL131:
 244:USER/BSP/Src/bsp_OLED.c **** 		{
 1014              		.loc 1 244 24 discriminator 3 view .LVU236
 1015 0022 E4B2     		uxtb	r4, r4
 1016              	.LVL132:
 246:USER/BSP/Src/bsp_OLED.c **** 		}
 1017              		.loc 1 246 18 discriminator 3 view .LVU237
 1018 0024 AB46     		mov	fp, r5
 1019              	.LVL133:
 1020              	.L68:
 244:USER/BSP/Src/bsp_OLED.c **** 		{
 1021              		.loc 1 244 18 is_stmt 1 discriminator 1 view .LVU238
 244:USER/BSP/Src/bsp_OLED.c **** 		{
 1022              		.loc 1 244 9 is_stmt 0 discriminator 1 view .LVU239
 1023 0026 B442     		cmp	r4, r6
 1024 0028 F4D3     		bcc	.L69
 241:USER/BSP/Src/bsp_OLED.c **** 	{
 1025              		.loc 1 241 16 is_stmt 1 discriminator 2 view .LVU240
 241:USER/BSP/Src/bsp_OLED.c **** 	{
 1026              		.loc 1 241 17 is_stmt 0 discriminator 2 view .LVU241
 1027 002a 08F10108 		add	r8, r8, #1
 1028              	.LVL134:
 241:USER/BSP/Src/bsp_OLED.c **** 	{
 1029              		.loc 1 241 17 discriminator 2 view .LVU242
 1030 002e 5FFA88F8 		uxtb	r8, r8
 1031              	.LVL135:
 1032              	.L67:
 241:USER/BSP/Src/bsp_OLED.c **** 	{
 1033              		.loc 1 241 11 is_stmt 1 discriminator 1 view .LVU243
 241:USER/BSP/Src/bsp_OLED.c **** 	{
 1034              		.loc 1 241 2 is_stmt 0 discriminator 1 view .LVU244
 1035 0032 D045     		cmp	r8, r10
 1036 0034 05D2     		bcs	.L72
 243:USER/BSP/Src/bsp_OLED.c ****         for(x=x0;x<x1;x++)
 1037              		.loc 1 243 9 is_stmt 1 view .LVU245
 1038 0036 4146     		mov	r1, r8
 1039 0038 4846     		mov	r0, r9
 1040 003a FFF7FEFF 		bl	bsp_OLED_SetPos
 1041              	.LVL136:
 244:USER/BSP/Src/bsp_OLED.c **** 		{
 1042              		.loc 1 244 9 view .LVU246
 244:USER/BSP/Src/bsp_OLED.c **** 		{
 1043              		.loc 1 244 14 is_stmt 0 view .LVU247
 1044 003e 4C46     		mov	r4, r9
 244:USER/BSP/Src/bsp_OLED.c **** 		{
 1045              		.loc 1 244 9 view .LVU248
 1046 0040 F1E7     		b	.L68
 1047              	.LVL137:
 1048              	.L72:
 249:USER/BSP/Src/bsp_OLED.c **** 
 1049              		.loc 1 249 1 view .LVU249
 1050 0042 BDE8F88F 		pop	{r3, r4, r5, r6, r7, r8, r9, r10, fp, pc}
 249:USER/BSP/Src/bsp_OLED.c **** 
ARM GAS  /var/folders/cb/0rfcg7_d4zbdkgdchwlcykcc0000gn/T//ccKAJtwl.s 			page 29


 1051              		.loc 1 249 1 view .LVU250
 1052              		.cfi_endproc
 1053              	.LFE139:
 1055              		.section	.text.bsp_OLED_ShowChar,"ax",%progbits
 1056              		.align	1
 1057              		.global	bsp_OLED_ShowChar
 1058              		.syntax unified
 1059              		.thumb
 1060              		.thumb_func
 1061              		.fpu fpv4-sp-d16
 1063              	bsp_OLED_ShowChar:
 1064              	.LVL138:
 1065              	.LFB140:
 260:USER/BSP/Src/bsp_OLED.c **** 	unsigned char c=0,i=0;	
 1066              		.loc 1 260 1 is_stmt 1 view -0
 1067              		.cfi_startproc
 1068              		@ args = 0, pretend = 0, frame = 0
 1069              		@ frame_needed = 0, uses_anonymous_args = 0
 260:USER/BSP/Src/bsp_OLED.c **** 	unsigned char c=0,i=0;	
 1070              		.loc 1 260 1 is_stmt 0 view .LVU252
 1071 0000 F8B5     		push	{r3, r4, r5, r6, r7, lr}
 1072              	.LCFI16:
 1073              		.cfi_def_cfa_offset 24
 1074              		.cfi_offset 3, -24
 1075              		.cfi_offset 4, -20
 1076              		.cfi_offset 5, -16
 1077              		.cfi_offset 6, -12
 1078              		.cfi_offset 7, -8
 1079              		.cfi_offset 14, -4
 1080 0002 0746     		mov	r7, r0
 1081 0004 0E46     		mov	r6, r1
 261:USER/BSP/Src/bsp_OLED.c **** 	c=chr-' ';//得到偏移后的值			
 1082              		.loc 1 261 2 is_stmt 1 view .LVU253
 1083              	.LVL139:
 262:USER/BSP/Src/bsp_OLED.c **** 	if(x>128-1){x=0;y=y+2;}
 1084              		.loc 1 262 2 view .LVU254
 262:USER/BSP/Src/bsp_OLED.c **** 	if(x>128-1){x=0;y=y+2;}
 1085              		.loc 1 262 3 is_stmt 0 view .LVU255
 1086 0006 203A     		subs	r2, r2, #32
 1087              	.LVL140:
 262:USER/BSP/Src/bsp_OLED.c **** 	if(x>128-1){x=0;y=y+2;}
 1088              		.loc 1 262 3 view .LVU256
 1089 0008 D5B2     		uxtb	r5, r2
 1090              	.LVL141:
 263:USER/BSP/Src/bsp_OLED.c **** 	if(Char_Size ==16)
 1091              		.loc 1 263 2 is_stmt 1 view .LVU257
 263:USER/BSP/Src/bsp_OLED.c **** 	if(Char_Size ==16)
 1092              		.loc 1 263 4 is_stmt 0 view .LVU258
 1093 000a 10F0800F 		tst	r0, #128
 1094 000e 13D1     		bne	.L84
 1095              	.LVL142:
 1096              	.L74:
 264:USER/BSP/Src/bsp_OLED.c **** 	{
 1097              		.loc 1 264 2 is_stmt 1 view .LVU259
 264:USER/BSP/Src/bsp_OLED.c **** 	{
 1098              		.loc 1 264 4 is_stmt 0 view .LVU260
 1099 0010 102B     		cmp	r3, #16
ARM GAS  /var/folders/cb/0rfcg7_d4zbdkgdchwlcykcc0000gn/T//ccKAJtwl.s 			page 30


 1100 0012 15D0     		beq	.L85
 275:USER/BSP/Src/bsp_OLED.c **** 		for(i=0;i<6;i++)
 1101              		.loc 1 275 3 is_stmt 1 view .LVU261
 1102 0014 3146     		mov	r1, r6
 1103 0016 3846     		mov	r0, r7
 1104 0018 FFF7FEFF 		bl	bsp_OLED_SetPos
 1105              	.LVL143:
 276:USER/BSP/Src/bsp_OLED.c **** 		WriteDat(F6x8[c][i]);	
 1106              		.loc 1 276 3 view .LVU262
 276:USER/BSP/Src/bsp_OLED.c **** 		WriteDat(F6x8[c][i]);	
 1107              		.loc 1 276 8 is_stmt 0 view .LVU263
 1108 001c 0024     		movs	r4, #0
 1109              	.LVL144:
 1110              	.L81:
 276:USER/BSP/Src/bsp_OLED.c **** 		WriteDat(F6x8[c][i]);	
 1111              		.loc 1 276 11 is_stmt 1 discriminator 1 view .LVU264
 276:USER/BSP/Src/bsp_OLED.c **** 		WriteDat(F6x8[c][i]);	
 1112              		.loc 1 276 3 is_stmt 0 discriminator 1 view .LVU265
 1113 001e 052C     		cmp	r4, #5
 1114 0020 30D8     		bhi	.L73
 277:USER/BSP/Src/bsp_OLED.c **** 	}
 1115              		.loc 1 277 3 is_stmt 1 discriminator 3 view .LVU266
 1116 0022 05EB4503 		add	r3, r5, r5, lsl #1
 1117 0026 184A     		ldr	r2, .L86
 1118 0028 02EB4303 		add	r3, r2, r3, lsl #1
 1119 002c 185D     		ldrb	r0, [r3, r4]	@ zero_extendqisi2
 1120 002e FFF7FEFF 		bl	WriteDat
 1121              	.LVL145:
 276:USER/BSP/Src/bsp_OLED.c **** 		WriteDat(F6x8[c][i]);	
 1122              		.loc 1 276 15 discriminator 3 view .LVU267
 276:USER/BSP/Src/bsp_OLED.c **** 		WriteDat(F6x8[c][i]);	
 1123              		.loc 1 276 16 is_stmt 0 discriminator 3 view .LVU268
 1124 0032 0134     		adds	r4, r4, #1
 1125              	.LVL146:
 276:USER/BSP/Src/bsp_OLED.c **** 		WriteDat(F6x8[c][i]);	
 1126              		.loc 1 276 16 discriminator 3 view .LVU269
 1127 0034 E4B2     		uxtb	r4, r4
 1128              	.LVL147:
 276:USER/BSP/Src/bsp_OLED.c **** 		WriteDat(F6x8[c][i]);	
 1129              		.loc 1 276 16 discriminator 3 view .LVU270
 1130 0036 F2E7     		b	.L81
 1131              	.LVL148:
 1132              	.L84:
 263:USER/BSP/Src/bsp_OLED.c **** 	if(Char_Size ==16)
 1133              		.loc 1 263 14 is_stmt 1 discriminator 1 view .LVU271
 263:USER/BSP/Src/bsp_OLED.c **** 	if(Char_Size ==16)
 1134              		.loc 1 263 18 discriminator 1 view .LVU272
 263:USER/BSP/Src/bsp_OLED.c **** 	if(Char_Size ==16)
 1135              		.loc 1 263 19 is_stmt 0 discriminator 1 view .LVU273
 1136 0038 0236     		adds	r6, r6, #2
 1137 003a F6B2     		uxtb	r6, r6
 1138              	.LVL149:
 263:USER/BSP/Src/bsp_OLED.c **** 	if(Char_Size ==16)
 1139              		.loc 1 263 15 discriminator 1 view .LVU274
 1140 003c 0027     		movs	r7, #0
 1141 003e E7E7     		b	.L74
 1142              	.LVL150:
ARM GAS  /var/folders/cb/0rfcg7_d4zbdkgdchwlcykcc0000gn/T//ccKAJtwl.s 			page 31


 1143              	.L85:
 266:USER/BSP/Src/bsp_OLED.c **** 		for(i=0;i<8;i++)
 1144              		.loc 1 266 3 is_stmt 1 view .LVU275
 1145 0040 3146     		mov	r1, r6
 1146 0042 3846     		mov	r0, r7
 1147 0044 FFF7FEFF 		bl	bsp_OLED_SetPos
 1148              	.LVL151:
 267:USER/BSP/Src/bsp_OLED.c **** 		WriteDat(F8X16[c*16+i]);
 1149              		.loc 1 267 3 view .LVU276
 267:USER/BSP/Src/bsp_OLED.c **** 		WriteDat(F8X16[c*16+i]);
 1150              		.loc 1 267 8 is_stmt 0 view .LVU277
 1151 0048 0024     		movs	r4, #0
 267:USER/BSP/Src/bsp_OLED.c **** 		WriteDat(F8X16[c*16+i]);
 1152              		.loc 1 267 3 view .LVU278
 1153 004a 07E0     		b	.L76
 1154              	.LVL152:
 1155              	.L77:
 268:USER/BSP/Src/bsp_OLED.c **** 		bsp_OLED_SetPos(x,y+1);
 1156              		.loc 1 268 3 is_stmt 1 discriminator 3 view .LVU279
 268:USER/BSP/Src/bsp_OLED.c **** 		bsp_OLED_SetPos(x,y+1);
 1157              		.loc 1 268 22 is_stmt 0 discriminator 3 view .LVU280
 1158 004c 04EB0513 		add	r3, r4, r5, lsl #4
 268:USER/BSP/Src/bsp_OLED.c **** 		bsp_OLED_SetPos(x,y+1);
 1159              		.loc 1 268 3 discriminator 3 view .LVU281
 1160 0050 0E4A     		ldr	r2, .L86+4
 1161 0052 D05C     		ldrb	r0, [r2, r3]	@ zero_extendqisi2
 1162 0054 FFF7FEFF 		bl	WriteDat
 1163              	.LVL153:
 267:USER/BSP/Src/bsp_OLED.c **** 		WriteDat(F8X16[c*16+i]);
 1164              		.loc 1 267 15 is_stmt 1 discriminator 3 view .LVU282
 267:USER/BSP/Src/bsp_OLED.c **** 		WriteDat(F8X16[c*16+i]);
 1165              		.loc 1 267 16 is_stmt 0 discriminator 3 view .LVU283
 1166 0058 0134     		adds	r4, r4, #1
 1167              	.LVL154:
 267:USER/BSP/Src/bsp_OLED.c **** 		WriteDat(F8X16[c*16+i]);
 1168              		.loc 1 267 16 discriminator 3 view .LVU284
 1169 005a E4B2     		uxtb	r4, r4
 1170              	.LVL155:
 1171              	.L76:
 267:USER/BSP/Src/bsp_OLED.c **** 		WriteDat(F8X16[c*16+i]);
 1172              		.loc 1 267 11 is_stmt 1 discriminator 1 view .LVU285
 267:USER/BSP/Src/bsp_OLED.c **** 		WriteDat(F8X16[c*16+i]);
 1173              		.loc 1 267 3 is_stmt 0 discriminator 1 view .LVU286
 1174 005c 072C     		cmp	r4, #7
 1175 005e F5D9     		bls	.L77
 269:USER/BSP/Src/bsp_OLED.c **** 		for(i=0;i<8;i++)
 1176              		.loc 1 269 3 is_stmt 1 view .LVU287
 1177 0060 711C     		adds	r1, r6, #1
 1178 0062 C9B2     		uxtb	r1, r1
 1179 0064 3846     		mov	r0, r7
 1180 0066 FFF7FEFF 		bl	bsp_OLED_SetPos
 1181              	.LVL156:
 270:USER/BSP/Src/bsp_OLED.c **** 		WriteDat(F8X16[c*16+i+8]);
 1182              		.loc 1 270 3 view .LVU288
 270:USER/BSP/Src/bsp_OLED.c **** 		WriteDat(F8X16[c*16+i+8]);
 1183              		.loc 1 270 8 is_stmt 0 view .LVU289
 1184 006a 0024     		movs	r4, #0
ARM GAS  /var/folders/cb/0rfcg7_d4zbdkgdchwlcykcc0000gn/T//ccKAJtwl.s 			page 32


 270:USER/BSP/Src/bsp_OLED.c **** 		WriteDat(F8X16[c*16+i+8]);
 1185              		.loc 1 270 3 view .LVU290
 1186 006c 08E0     		b	.L78
 1187              	.LVL157:
 1188              	.L79:
 271:USER/BSP/Src/bsp_OLED.c **** 	}
 1189              		.loc 1 271 3 is_stmt 1 discriminator 3 view .LVU291
 271:USER/BSP/Src/bsp_OLED.c **** 	}
 1190              		.loc 1 271 22 is_stmt 0 discriminator 3 view .LVU292
 1191 006e 04EB0513 		add	r3, r4, r5, lsl #4
 271:USER/BSP/Src/bsp_OLED.c **** 	}
 1192              		.loc 1 271 24 discriminator 3 view .LVU293
 1193 0072 0833     		adds	r3, r3, #8
 271:USER/BSP/Src/bsp_OLED.c **** 	}
 1194              		.loc 1 271 3 discriminator 3 view .LVU294
 1195 0074 054A     		ldr	r2, .L86+4
 1196 0076 D05C     		ldrb	r0, [r2, r3]	@ zero_extendqisi2
 1197 0078 FFF7FEFF 		bl	WriteDat
 1198              	.LVL158:
 270:USER/BSP/Src/bsp_OLED.c **** 		WriteDat(F8X16[c*16+i+8]);
 1199              		.loc 1 270 15 is_stmt 1 discriminator 3 view .LVU295
 270:USER/BSP/Src/bsp_OLED.c **** 		WriteDat(F8X16[c*16+i+8]);
 1200              		.loc 1 270 16 is_stmt 0 discriminator 3 view .LVU296
 1201 007c 0134     		adds	r4, r4, #1
 1202              	.LVL159:
 270:USER/BSP/Src/bsp_OLED.c **** 		WriteDat(F8X16[c*16+i+8]);
 1203              		.loc 1 270 16 discriminator 3 view .LVU297
 1204 007e E4B2     		uxtb	r4, r4
 1205              	.LVL160:
 1206              	.L78:
 270:USER/BSP/Src/bsp_OLED.c **** 		WriteDat(F8X16[c*16+i+8]);
 1207              		.loc 1 270 11 is_stmt 1 discriminator 1 view .LVU298
 270:USER/BSP/Src/bsp_OLED.c **** 		WriteDat(F8X16[c*16+i+8]);
 1208              		.loc 1 270 3 is_stmt 0 discriminator 1 view .LVU299
 1209 0080 072C     		cmp	r4, #7
 1210 0082 F4D9     		bls	.L79
 1211              	.L73:
 279:USER/BSP/Src/bsp_OLED.c **** 
 1212              		.loc 1 279 1 view .LVU300
 1213 0084 F8BD     		pop	{r3, r4, r5, r6, r7, pc}
 1214              	.LVL161:
 1215              	.L87:
 279:USER/BSP/Src/bsp_OLED.c **** 
 1216              		.loc 1 279 1 view .LVU301
 1217 0086 00BF     		.align	2
 1218              	.L86:
 1219 0088 00000000 		.word	.LANCHOR0
 1220 008c 00000000 		.word	.LANCHOR1
 1221              		.cfi_endproc
 1222              	.LFE140:
 1224              		.section	.text.bsp_OLED_ShowNum,"ax",%progbits
 1225              		.align	1
 1226              		.global	bsp_OLED_ShowNum
 1227              		.syntax unified
 1228              		.thumb
 1229              		.thumb_func
 1230              		.fpu fpv4-sp-d16
ARM GAS  /var/folders/cb/0rfcg7_d4zbdkgdchwlcykcc0000gn/T//ccKAJtwl.s 			page 33


 1232              	bsp_OLED_ShowNum:
 1233              	.LVL162:
 1234              	.LFB142:
 305:USER/BSP/Src/bsp_OLED.c **** 	u8 t,temp;
 1235              		.loc 1 305 1 is_stmt 1 view -0
 1236              		.cfi_startproc
 1237              		@ args = 4, pretend = 0, frame = 0
 1238              		@ frame_needed = 0, uses_anonymous_args = 0
 305:USER/BSP/Src/bsp_OLED.c **** 	u8 t,temp;
 1239              		.loc 1 305 1 is_stmt 0 view .LVU303
 1240 0000 2DE9F84F 		push	{r3, r4, r5, r6, r7, r8, r9, r10, fp, lr}
 1241              	.LCFI17:
 1242              		.cfi_def_cfa_offset 40
 1243              		.cfi_offset 3, -40
 1244              		.cfi_offset 4, -36
 1245              		.cfi_offset 5, -32
 1246              		.cfi_offset 6, -28
 1247              		.cfi_offset 7, -24
 1248              		.cfi_offset 8, -20
 1249              		.cfi_offset 9, -16
 1250              		.cfi_offset 10, -12
 1251              		.cfi_offset 11, -8
 1252              		.cfi_offset 14, -4
 1253 0004 8346     		mov	fp, r0
 1254 0006 8A46     		mov	r10, r1
 1255 0008 9146     		mov	r9, r2
 1256 000a 1E46     		mov	r6, r3
 1257 000c 9DF82870 		ldrb	r7, [sp, #40]	@ zero_extendqisi2
 306:USER/BSP/Src/bsp_OLED.c **** 	u8 enshow=0;						   
 1258              		.loc 1 306 2 is_stmt 1 view .LVU304
 307:USER/BSP/Src/bsp_OLED.c **** 	for(t=0;t<len;t++)
 1259              		.loc 1 307 2 view .LVU305
 1260              	.LVL163:
 308:USER/BSP/Src/bsp_OLED.c **** 	{
 1261              		.loc 1 308 2 view .LVU306
 307:USER/BSP/Src/bsp_OLED.c **** 	for(t=0;t<len;t++)
 1262              		.loc 1 307 5 is_stmt 0 view .LVU307
 1263 0010 4FF00008 		mov	r8, #0
 308:USER/BSP/Src/bsp_OLED.c **** 	{
 1264              		.loc 1 308 7 view .LVU308
 1265 0014 4546     		mov	r5, r8
 308:USER/BSP/Src/bsp_OLED.c **** 	{
 1266              		.loc 1 308 2 view .LVU309
 1267 0016 19E0     		b	.L89
 1268              	.LVL164:
 1269              	.L96:
 315:USER/BSP/Src/bsp_OLED.c **** 				continue;
 1270              		.loc 1 315 5 is_stmt 1 view .LVU310
 315:USER/BSP/Src/bsp_OLED.c **** 				continue;
 1271              		.loc 1 315 34 is_stmt 0 view .LVU311
 1272 0018 7808     		lsrs	r0, r7, #1
 1273 001a 10FB05F0 		smulbb	r0, r0, r5
 315:USER/BSP/Src/bsp_OLED.c **** 				continue;
 1274              		.loc 1 315 5 view .LVU312
 1275 001e 5BFA80F0 		uxtab	r0, fp, r0
 1276 0022 3B46     		mov	r3, r7
 1277 0024 2022     		movs	r2, #32
ARM GAS  /var/folders/cb/0rfcg7_d4zbdkgdchwlcykcc0000gn/T//ccKAJtwl.s 			page 34


 1278 0026 5146     		mov	r1, r10
 1279 0028 C0B2     		uxtb	r0, r0
 1280 002a FFF7FEFF 		bl	bsp_OLED_ShowChar
 1281              	.LVL165:
 316:USER/BSP/Src/bsp_OLED.c **** 			}else enshow=1; 
 1282              		.loc 1 316 5 is_stmt 1 view .LVU313
 1283 002e 0BE0     		b	.L91
 1284              	.LVL166:
 1285              	.L90:
 319:USER/BSP/Src/bsp_OLED.c **** 	}
 1286              		.loc 1 319 4 view .LVU314
 319:USER/BSP/Src/bsp_OLED.c **** 	}
 1287              		.loc 1 319 33 is_stmt 0 view .LVU315
 1288 0030 7808     		lsrs	r0, r7, #1
 1289 0032 10FB05F0 		smulbb	r0, r0, r5
 319:USER/BSP/Src/bsp_OLED.c **** 	}
 1290              		.loc 1 319 4 view .LVU316
 1291 0036 3034     		adds	r4, r4, #48
 1292              	.LVL167:
 319:USER/BSP/Src/bsp_OLED.c **** 	}
 1293              		.loc 1 319 4 view .LVU317
 1294 0038 5BFA80F0 		uxtab	r0, fp, r0
 1295 003c 3B46     		mov	r3, r7
 1296 003e E2B2     		uxtb	r2, r4
 1297 0040 5146     		mov	r1, r10
 1298 0042 C0B2     		uxtb	r0, r0
 1299 0044 FFF7FEFF 		bl	bsp_OLED_ShowChar
 1300              	.LVL168:
 1301              	.L91:
 308:USER/BSP/Src/bsp_OLED.c **** 	{
 1302              		.loc 1 308 16 is_stmt 1 discriminator 2 view .LVU318
 308:USER/BSP/Src/bsp_OLED.c **** 	{
 1303              		.loc 1 308 17 is_stmt 0 discriminator 2 view .LVU319
 1304 0048 0135     		adds	r5, r5, #1
 1305              	.LVL169:
 308:USER/BSP/Src/bsp_OLED.c **** 	{
 1306              		.loc 1 308 17 discriminator 2 view .LVU320
 1307 004a EDB2     		uxtb	r5, r5
 1308              	.LVL170:
 1309              	.L89:
 308:USER/BSP/Src/bsp_OLED.c **** 	{
 1310              		.loc 1 308 10 is_stmt 1 discriminator 1 view .LVU321
 308:USER/BSP/Src/bsp_OLED.c **** 	{
 1311              		.loc 1 308 2 is_stmt 0 discriminator 1 view .LVU322
 1312 004c B542     		cmp	r5, r6
 1313 004e 1CD2     		bcs	.L95
 310:USER/BSP/Src/bsp_OLED.c **** 		if(enshow==0&&t<(len-1))
 1314              		.loc 1 310 3 is_stmt 1 view .LVU323
 310:USER/BSP/Src/bsp_OLED.c **** 		if(enshow==0&&t<(len-1))
 1315              		.loc 1 310 32 is_stmt 0 view .LVU324
 1316 0050 711B     		subs	r1, r6, r5
 1317 0052 C9B2     		uxtb	r1, r1
 310:USER/BSP/Src/bsp_OLED.c **** 		if(enshow==0&&t<(len-1))
 1318              		.loc 1 310 13 view .LVU325
 1319 0054 0139     		subs	r1, r1, #1
 1320 0056 C9B2     		uxtb	r1, r1
 1321 0058 0A20     		movs	r0, #10
ARM GAS  /var/folders/cb/0rfcg7_d4zbdkgdchwlcykcc0000gn/T//ccKAJtwl.s 			page 35


 1322 005a FFF7FEFF 		bl	bsp_OLED_pow
 1323              	.LVL171:
 310:USER/BSP/Src/bsp_OLED.c **** 		if(enshow==0&&t<(len-1))
 1324              		.loc 1 310 12 view .LVU326
 1325 005e B9FBF0F0 		udiv	r0, r9, r0
 310:USER/BSP/Src/bsp_OLED.c **** 		if(enshow==0&&t<(len-1))
 1326              		.loc 1 310 38 view .LVU327
 1327 0062 0B4C     		ldr	r4, .L97
 1328 0064 A4FB0034 		umull	r3, r4, r4, r0
 1329 0068 E408     		lsrs	r4, r4, #3
 1330 006a 04EB8404 		add	r4, r4, r4, lsl #2
 1331 006e A0EB4404 		sub	r4, r0, r4, lsl #1
 310:USER/BSP/Src/bsp_OLED.c **** 		if(enshow==0&&t<(len-1))
 1332              		.loc 1 310 7 view .LVU328
 1333 0072 E4B2     		uxtb	r4, r4
 1334              	.LVL172:
 311:USER/BSP/Src/bsp_OLED.c **** 		{
 1335              		.loc 1 311 3 is_stmt 1 view .LVU329
 311:USER/BSP/Src/bsp_OLED.c **** 		{
 1336              		.loc 1 311 5 is_stmt 0 view .LVU330
 1337 0074 B8F1000F 		cmp	r8, #0
 1338 0078 DAD1     		bne	.L90
 311:USER/BSP/Src/bsp_OLED.c **** 		{
 1339              		.loc 1 311 23 discriminator 1 view .LVU331
 1340 007a 731E     		subs	r3, r6, #1
 311:USER/BSP/Src/bsp_OLED.c **** 		{
 1341              		.loc 1 311 15 discriminator 1 view .LVU332
 1342 007c 9D42     		cmp	r5, r3
 1343 007e D7DA     		bge	.L90
 313:USER/BSP/Src/bsp_OLED.c **** 			{
 1344              		.loc 1 313 4 is_stmt 1 view .LVU333
 313:USER/BSP/Src/bsp_OLED.c **** 			{
 1345              		.loc 1 313 6 is_stmt 0 view .LVU334
 1346 0080 002C     		cmp	r4, #0
 1347 0082 C9D0     		beq	.L96
 317:USER/BSP/Src/bsp_OLED.c **** 		}
 1348              		.loc 1 317 16 view .LVU335
 1349 0084 4FF00108 		mov	r8, #1
 1350              	.LVL173:
 317:USER/BSP/Src/bsp_OLED.c **** 		}
 1351              		.loc 1 317 16 view .LVU336
 1352 0088 D2E7     		b	.L90
 1353              	.LVL174:
 1354              	.L95:
 321:USER/BSP/Src/bsp_OLED.c **** 
 1355              		.loc 1 321 1 view .LVU337
 1356 008a BDE8F88F 		pop	{r3, r4, r5, r6, r7, r8, r9, r10, fp, pc}
 1357              	.LVL175:
 1358              	.L98:
 321:USER/BSP/Src/bsp_OLED.c **** 
 1359              		.loc 1 321 1 view .LVU338
 1360 008e 00BF     		.align	2
 1361              	.L97:
 1362 0090 CDCCCCCC 		.word	-858993459
 1363              		.cfi_endproc
 1364              	.LFE142:
 1366              		.global	F8X16
ARM GAS  /var/folders/cb/0rfcg7_d4zbdkgdchwlcykcc0000gn/T//ccKAJtwl.s 			page 36


 1367              		.global	F6x8
 1368              		.global	F16x16
 1369              		.section	.data.F16x16,"aw"
 1370              		.align	2
 1371              		.set	.LANCHOR2,. + 0
 1374              	F16x16:
 1375 0000 0000FE12 		.ascii	"\000\000\376\022\222\262\322\222\222\222\322\262\236"
 1375      92B2D292 
 1375      9292D2B2 
 1375      9E
 1376 000d 00000040 		.ascii	"\000\000\000@0\017\004\204d\037\004\004\004\377\004"
 1376      300F0484 
 1376      641F0404 
 1376      04FF04
 1377 001c 04040000 		.ascii	"\004\004\000\000\000\002\002\372\252\257\252\252\252"
 1377      000202FA 
 1377      AAAFAAAA 
 1377      AA
 1378 0029 AFAAFA02 		.ascii	"\257\252\372\002\002\000\000\022\022\012~\012\013\012"
 1378      02000012 
 1378      120A7E0A 
 1378      0B0A
 1379 0037 FE0A2A4A 		.ascii	"\376\012*J>\012\022\022\000\020`\002\214\000\376\002"
 1379      3E0A1212 
 1379      00106002 
 1379      8C00FE02 
 1380 0047 F202FE00 		.ascii	"\362\002\376\000\370\000\377\000\000\004\004~\001\200"
 1380      F800FF00 
 1380      0004047E 
 1380      0180
 1381 0055 47300F10 		.ascii	"G0\017\020'\000G\200\177\000\000@@B\314\000\220\220"
 1381      27004780 
 1381      7F000040 
 1381      4042CC00 
 1381      9090
 1382 0067 909090FF 		.ascii	"\220\220\220\377\020\021\026\020\000\000\000\000?\020"
 1382      10111610 
 1382      00000000 
 1382      3F10
 1383 0075 28603F10 		.ascii	"(`?\020\020\001\0160@\360\000@B\314\000\000DTTT\177"
 1383      10010E30 
 1383      40F00040 
 1383      42CC0000 
 1383      44545454 
 1384 008a 54545444 		.ascii	"TTTD@\000\000\000\177 \020\000\377\025\025\025U\225"
 1384      40000000 
 1384      7F201000 
 1384      FF151515 
 1384      5595
 1385 009c 7F000000 		.ascii	"\177\000\000\000 \"**\252j:.)))))  \000\010\004\002"
 1385      20222A2A 
 1385      AA6A3A2E 
 1385      29292929 
 1385      29202000 
 1386 00b3 01FF5555 		.ascii	"\001\377UUUUUU\377\000\000\000\000\000\376\002B\"2^"
 1386      55555555 
 1386      FF000000 
ARM GAS  /var/folders/cb/0rfcg7_d4zbdkgdchwlcykcc0000gn/T//ccKAJtwl.s 			page 37


 1386      0000FE02 
 1386      4222325E 
 1387 00c7 92523212 		.ascii	"\222R2\022\002\002\376\000\000\000\377BBBQUdiABBB\377"
 1387      0202FE00 
 1387      0000FF42 
 1387      42425155 
 1387      64694142 
 1388 00de 00000000 		.ascii	"\000\000\000\000\000\376     ?    \000\000\000\200`"
 1388      00FE2020 
 1388      2020203F 
 1388      20202020 
 1388      00000080 
 1389 00f3 1F020202 		.ascii	"\037\002\002\002\002\002\002\376\000\000\000\000\000"
 1389      020202FE 
 1389      00000000 
 1389      00
 1390              		.section	.rodata.F6x8,"a"
 1391              		.align	2
 1392              		.set	.LANCHOR0,. + 0
 1395              	F6x8:
 1396 0000 00000000 		.ascii	"\000\000\000\000\000\000"
 1396      0000
 1397 0006 0000002F 		.ascii	"\000\000\000/\000\000"
 1397      0000
 1398 000c 00000700 		.ascii	"\000\000\007\000\007\000"
 1398      0700
 1399 0012 00147F14 		.ascii	"\000\024\177\024\177\024"
 1399      7F14
 1400 0018 00242A7F 		.ascii	"\000$*\177*\022"
 1400      2A12
 1401 001e 00626408 		.ascii	"\000bd\010\023#"
 1401      1323
 1402 0024 00364955 		.ascii	"\0006IU\"P"
 1402      2250
 1403 002a 00000503 		.ascii	"\000\000\005\003\000\000"
 1403      0000
 1404 0030 00001C22 		.ascii	"\000\000\034\"A\000"
 1404      4100
 1405 0036 00004122 		.ascii	"\000\000A\"\034\000"
 1405      1C00
 1406 003c 0014083E 		.ascii	"\000\024\010>\010\024"
 1406      0814
 1407 0042 0008083E 		.ascii	"\000\010\010>\010\010"
 1407      0808
 1408 0048 000000A0 		.ascii	"\000\000\000\240`\000"
 1408      6000
 1409 004e 00080808 		.ascii	"\000\010\010\010\010\010"
 1409      0808
 1410 0054 00006060 		.ascii	"\000\000``\000\000"
 1410      0000
 1411 005a 00201008 		.ascii	"\000 \020\010\004\002"
 1411      0402
 1412 0060 003E5149 		.ascii	"\000>QIE>"
 1412      453E
 1413 0066 0000427F 		.ascii	"\000\000B\177@\000"
 1413      4000
 1414 006c 00426151 		.ascii	"\000BaQIF"
ARM GAS  /var/folders/cb/0rfcg7_d4zbdkgdchwlcykcc0000gn/T//ccKAJtwl.s 			page 38


 1414      4946
 1415 0072 00214145 		.ascii	"\000!AEK1"
 1415      4B31
 1416 0078 00181412 		.ascii	"\000\030\024\022\177\020"
 1416      7F10
 1417 007e 00274545 		.ascii	"\000'EEE9"
 1417      4539
 1418 0084 003C4A49 		.ascii	"\000<JII0"
 1418      4930
 1419 008a 00017109 		.ascii	"\000\001q\011\005\003"
 1419      0503
 1420 0090 00364949 		.ascii	"\0006III6"
 1420      4936
 1421 0096 00064949 		.ascii	"\000\006II)\036"
 1421      291E
 1422 009c 00003636 		.ascii	"\000\00066\000\000"
 1422      0000
 1423 00a2 00005636 		.ascii	"\000\000V6\000\000"
 1423      0000
 1424 00a8 00081422 		.ascii	"\000\010\024\"A\000"
 1424      4100
 1425 00ae 00141414 		.ascii	"\000\024\024\024\024\024"
 1425      1414
 1426 00b4 00004122 		.ascii	"\000\000A\"\024\010"
 1426      1408
 1427 00ba 00020151 		.ascii	"\000\002\001Q\011\006"
 1427      0906
 1428 00c0 00324959 		.ascii	"\0002IYQ>"
 1428      513E
 1429 00c6 007C1211 		.ascii	"\000|\022\021\022|"
 1429      127C
 1430 00cc 007F4949 		.ascii	"\000\177III6"
 1430      4936
 1431 00d2 003E4141 		.ascii	"\000>AAA\""
 1431      4122
 1432 00d8 007F4141 		.ascii	"\000\177AA\"\034"
 1432      221C
 1433 00de 007F4949 		.ascii	"\000\177IIIA"
 1433      4941
 1434 00e4 007F0909 		.ascii	"\000\177\011\011\011\001"
 1434      0901
 1435 00ea 003E4149 		.ascii	"\000>AIIz"
 1435      497A
 1436 00f0 007F0808 		.ascii	"\000\177\010\010\010\177"
 1436      087F
 1437 00f6 0000417F 		.ascii	"\000\000A\177A\000"
 1437      4100
 1438 00fc 00204041 		.ascii	"\000 @A?\001"
 1438      3F01
 1439 0102 007F0814 		.ascii	"\000\177\010\024\"A"
 1439      2241
 1440 0108 007F4040 		.ascii	"\000\177@@@@"
 1440      4040
 1441 010e 007F020C 		.ascii	"\000\177\002\014\002\177"
 1441      027F
 1442 0114 007F0408 		.ascii	"\000\177\004\010\020\177"
 1442      107F
ARM GAS  /var/folders/cb/0rfcg7_d4zbdkgdchwlcykcc0000gn/T//ccKAJtwl.s 			page 39


 1443 011a 003E4141 		.ascii	"\000>AAA>"
 1443      413E
 1444 0120 007F0909 		.ascii	"\000\177\011\011\011\006"
 1444      0906
 1445 0126 003E4151 		.ascii	"\000>AQ!^"
 1445      215E
 1446 012c 007F0919 		.ascii	"\000\177\011\031)F"
 1446      2946
 1447 0132 00464949 		.ascii	"\000FIII1"
 1447      4931
 1448 0138 0001017F 		.ascii	"\000\001\001\177\001\001"
 1448      0101
 1449 013e 003F4040 		.ascii	"\000?@@@?"
 1449      403F
 1450 0144 001F2040 		.ascii	"\000\037 @ \037"
 1450      201F
 1451 014a 003F4038 		.ascii	"\000?@8@?"
 1451      403F
 1452 0150 00631408 		.ascii	"\000c\024\010\024c"
 1452      1463
 1453 0156 00070870 		.ascii	"\000\007\010p\010\007"
 1453      0807
 1454 015c 00615149 		.ascii	"\000aQIEC"
 1454      4543
 1455 0162 00007F41 		.ascii	"\000\000\177AA\000"
 1455      4100
 1456 0168 00552A55 		.ascii	"\000U*U*U"
 1456      2A55
 1457 016e 00004141 		.ascii	"\000\000AA\177\000"
 1457      7F00
 1458 0174 00040201 		.ascii	"\000\004\002\001\002\004"
 1458      0204
 1459 017a 00404040 		.ascii	"\000@@@@@"
 1459      4040
 1460 0180 00000102 		.ascii	"\000\000\001\002\004\000"
 1460      0400
 1461 0186 00205454 		.ascii	"\000 TTTx"
 1461      5478
 1462 018c 007F4844 		.ascii	"\000\177HDD8"
 1462      4438
 1463 0192 00384444 		.ascii	"\0008DDD "
 1463      4420
 1464 0198 00384444 		.ascii	"\0008DDH\177"
 1464      487F
 1465 019e 00385454 		.ascii	"\0008TTT\030"
 1465      5418
 1466 01a4 00087E09 		.ascii	"\000\010~\011\001\002"
 1466      0102
 1467 01aa 0018A4A4 		.ascii	"\000\030\244\244\244|"
 1467      A47C
 1468 01b0 007F0804 		.ascii	"\000\177\010\004\004x"
 1468      0478
 1469 01b6 0000447D 		.ascii	"\000\000D}@\000"
 1469      4000
 1470 01bc 00408084 		.ascii	"\000@\200\204}\000"
 1470      7D00
 1471 01c2 007F1028 		.ascii	"\000\177\020(D\000"
ARM GAS  /var/folders/cb/0rfcg7_d4zbdkgdchwlcykcc0000gn/T//ccKAJtwl.s 			page 40


 1471      4400
 1472 01c8 0000417F 		.ascii	"\000\000A\177@\000"
 1472      4000
 1473 01ce 007C0418 		.ascii	"\000|\004\030\004x"
 1473      0478
 1474 01d4 007C0804 		.ascii	"\000|\010\004\004x"
 1474      0478
 1475 01da 00384444 		.ascii	"\0008DDD8"
 1475      4438
 1476 01e0 00FC2424 		.ascii	"\000\374$$$\030"
 1476      2418
 1477 01e6 00182424 		.ascii	"\000\030$$\030\374"
 1477      18FC
 1478 01ec 007C0804 		.ascii	"\000|\010\004\004\010"
 1478      0408
 1479 01f2 00485454 		.ascii	"\000HTTT "
 1479      5420
 1480 01f8 00043F44 		.ascii	"\000\004?D@ "
 1480      4020
 1481 01fe 003C4040 		.ascii	"\000<@@ |"
 1481      207C
 1482 0204 001C2040 		.ascii	"\000\034 @ \034"
 1482      201C
 1483 020a 003C4030 		.ascii	"\000<@0@<"
 1483      403C
 1484 0210 00442810 		.ascii	"\000D(\020(D"
 1484      2844
 1485 0216 001CA0A0 		.ascii	"\000\034\240\240\240|"
 1485      A07C
 1486 021c 00446454 		.ascii	"\000DdTLD"
 1486      4C44
 1487 0222 14141414 		.ascii	"\024\024\024\024\024\024"
 1487      1414
 1488              		.section	.rodata.F8X16,"a"
 1489              		.align	2
 1490              		.set	.LANCHOR1,. + 0
 1493              	F8X16:
 1494 0000 00000000 		.ascii	"\000\000\000\000\000\000\000\000\000\000\000\000\000"
 1494      00000000 
 1494      00000000 
 1494      00
 1495 000d 00000000 		.ascii	"\000\000\000\000\000\000\370\000\000\000\000\000\000"
 1495      0000F800 
 1495      00000000 
 1495      00
 1496 001a 00333000 		.ascii	"\00030\000\000\000\000\020\014\006\020\014\006\000\000"
 1496      00000010 
 1496      0C06100C 
 1496      060000
 1497 0029 00000000 		.ascii	"\000\000\000\000\000\000\000@\300x@\300x@\000\004?\004"
 1497      00000040 
 1497      C07840C0 
 1497      78400004 
 1497      3F04
 1498 003b 043F0404 		.ascii	"\004?\004\004\000\000p\210\374\0100\000\000\000\030"
 1498      00007088 
 1498      FC083000 
ARM GAS  /var/folders/cb/0rfcg7_d4zbdkgdchwlcykcc0000gn/T//ccKAJtwl.s 			page 41


 1498      000018
 1499 004a 20FF211E 		.ascii	" \377!\036\000\000\360\010\360\000\340\030\000\000\000"
 1499      0000F008 
 1499      F000E018 
 1499      000000
 1500 0059 211C031E 		.ascii	"!\034\003\036!\036\000\000\360\010\210p\000\000\000"
 1500      211E0000 
 1500      F0088870 
 1500      000000
 1501 0068 1E212324 		.ascii	"\036!#$\031'!\020\020\026\016\000\000\000\000\000\000"
 1501      19272110 
 1501      10160E00 
 1501      00000000 
 1501      00
 1502 0079 00000000 		.ascii	"\000\000\000\000\000\000\000\000\000\000\340\030\004"
 1502      00000000 
 1502      0000E018 
 1502      04
 1503 0086 02000000 		.ascii	"\002\000\000\000\000\007\030 @\000\000\002\004\030\340"
 1503      00071820 
 1503      40000002 
 1503      0418E0
 1504 0095 00000000 		.ascii	"\000\000\000\000@ \030\007\000\000\000@@\200\360\200"
 1504      40201807 
 1504      00000040 
 1504      4080F080 
 1505 00a5 40400002 		.ascii	"@@\000\002\002\001\017\001\002\002\000\000\000\000\360"
 1505      02010F01 
 1505      02020000 
 1505      0000F0
 1506 00b4 00000000 		.ascii	"\000\000\000\000\001\001\001\037\001\001\001\000\000"
 1506      0101011F 
 1506      01010100 
 1506      00
 1507 00c1 00000000 		.ascii	"\000\000\000\000\000\000\000\200\260p\000\000\000\000"
 1507      00000080 
 1507      B0700000 
 1507      0000
 1508 00cf 00000000 		.ascii	"\000\000\000\000\000\000\000\000\000\000\001\001\001"
 1508      00000000 
 1508      00000101 
 1508      01
 1509 00dc 01010101 		.ascii	"\001\001\001\001\000\000\000\000\000\000\000\000\000"
 1509      00000000 
 1509      00000000 
 1509      00
 1510 00e9 30300000 		.ascii	"00\000\000\000\000\000\000\000\000\000\200`\030\004"
 1510      00000000 
 1510      00000080 
 1510      601804
 1511 00f8 00601806 		.ascii	"\000`\030\006\001\000\000\000\000\340\020\010\010\020"
 1511      01000000 
 1511      00E01008 
 1511      0810
 1512 0106 E000000F 		.ascii	"\340\000\000\017\020  \020\017\000\000\020\020\370\000"
 1512      10202010 
 1512      0F000010 
ARM GAS  /var/folders/cb/0rfcg7_d4zbdkgdchwlcykcc0000gn/T//ccKAJtwl.s 			page 42


 1512      10F800
 1513 0115 00000000 		.ascii	"\000\000\000\000  ?  \000\000\000p\010\010\010\210p"
 1513      20203F20 
 1513      20000000 
 1513      70080808 
 1513      8870
 1514 0127 00003028 		.ascii	"\000\0000($\"!0\000\0000\010\210\210H0\000\000\030 "
 1514      24222130 
 1514      00003008 
 1514      88884830 
 1514      00001820 
 1515 013b 2020110E 		.ascii	"  \021\016\000\000\000\300 \020\370\000\000\000\007"
 1515      000000C0 
 1515      2010F800 
 1515      000007
 1516 014a 0424243F 		.ascii	"\004$$?$\000\000\370\010\210\210\010\010\000\000\031"
 1516      240000F8 
 1516      08888808 
 1516      08000019 
 1517 015a 21202011 		.ascii	"!  \021\016\000\000\340\020\210\210\030\000\000\000"
 1517      0E0000E0 
 1517      10888818 
 1517      000000
 1518 0169 0F112020 		.ascii	"\017\021  \021\016\000\0008\010\010\3108\010\000\000"
 1518      110E0000 
 1518      380808C8 
 1518      38080000 
 1519 0179 00003F00 		.ascii	"\000\000?\000\000\000\000\000p\210\010\010\210p\000"
 1519      00000000 
 1519      70880808 
 1519      887000
 1520 0188 001C2221 		.ascii	"\000\034\"!!\"\034\000\000\340\020\010\010\020\340\000"
 1520      21221C00 
 1520      00E01008 
 1520      0810E000 
 1521 0198 00003122 		.ascii	"\000\0001\"\"\021\017\000\000\000\000\300\300\000\000"
 1521      22110F00 
 1521      000000C0 
 1521      C00000
 1522 01a7 00000000 		.ascii	"\000\000\000\00000\000\000\000\000\000\000\200\000\000"
 1522      30300000 
 1522      00000000 
 1522      800000
 1523 01b6 00000000 		.ascii	"\000\000\000\000\200`\000\000\000\000\000\000\200@ "
 1523      80600000 
 1523      00000000 
 1523      804020
 1524 01c5 10080000 		.ascii	"\020\010\000\000\001\002\004\010\020 \000@@@@@@@\000"
 1524      01020408 
 1524      10200040 
 1524      40404040 
 1524      404000
 1525 01d8 04040404 		.ascii	"\004\004\004\004\004\004\004\000\000\010\020 @\200\000"
 1525      04040400 
 1525      00081020 
 1525      408000
 1526 01e7 00002010 		.ascii	"\000\000 \020\010\004\002\001\000\000pH\010\010\010"
ARM GAS  /var/folders/cb/0rfcg7_d4zbdkgdchwlcykcc0000gn/T//ccKAJtwl.s 			page 43


 1526      08040201 
 1526      00007048 
 1526      080808
 1527 01f6 F0000000 		.ascii	"\360\000\000\000\00006\001\000\000\3000\310(\350\020"
 1527      00303601 
 1527      0000C030 
 1527      C828E810 
 1528 0206 E0000718 		.ascii	"\340\000\007\030'$#\024\013\000\000\000\3008\340\000"
 1528      27242314 
 1528      0B000000 
 1528      C038E000 
 1529 0216 0000203C 		.ascii	"\000\000 <#\002\002'8 \010\370\210\210\210p\000\000"
 1529      23020227 
 1529      382008F8 
 1529      88888870 
 1529      0000
 1530 0228 203F2020 		.ascii	" ?   \021\016\000\3000\010\010\010\0108\000\007\030"
 1530      20110E00 
 1530      C0300808 
 1530      08083800 
 1530      0718
 1531 023a 20202010 		.ascii	"   \020\010\000\010\370\010\010\010\020\340\000 ?  "
 1531      080008F8 
 1531      08080810 
 1531      E000203F 
 1531      2020
 1532 024c 20100F00 		.ascii	" \020\017\000\010\370\210\210\350\010\020\000 ?  # "
 1532      08F88888 
 1532      E8081000 
 1532      203F2020 
 1532      2320
 1533 025e 180008F8 		.ascii	"\030\000\010\370\210\210\350\010\020\000 ? \000\003"
 1533      8888E808 
 1533      1000203F 
 1533      200003
 1534 026d 000000C0 		.ascii	"\000\000\000\3000\010\010\0108\000\000\007\030  \"\036"
 1534      30080808 
 1534      38000007 
 1534      18202022 
 1534      1E
 1535 027e 020008F8 		.ascii	"\002\000\010\370\010\000\000\010\370\010 ?!\001\001"
 1535      08000008 
 1535      F808203F 
 1535      210101
 1536 028d 213F2000 		.ascii	"!? \000\010\010\370\010\010\000\000\000  ?  \000\000"
 1536      0808F808 
 1536      08000000 
 1536      20203F20 
 1536      200000
 1537 02a0 00000808 		.ascii	"\000\000\010\010\370\010\010\000\300\200\200\200\177"
 1537      F8080800 
 1537      C0808080 
 1537      7F
 1538 02ad 00000008 		.ascii	"\000\000\000\010\370\210\300(\030\010\000 ? \001&8 "
 1538      F888C028 
 1538      18080020 
 1538      3F200126 
ARM GAS  /var/folders/cb/0rfcg7_d4zbdkgdchwlcykcc0000gn/T//ccKAJtwl.s 			page 44


 1538      3820
 1539 02bf 0008F808 		.ascii	"\000\010\370\010\000\000\000\000\000 ?    0\000\010"
 1539      00000000 
 1539      00203F20 
 1539      20202030 
 1539      0008
 1540 02d1 F8F800F8 		.ascii	"\370\370\000\370\370\010\000 ?\000?\000? \000\010\370"
 1540      F8080020 
 1540      3F003F00 
 1540      3F200008 
 1540      F8
 1541 02e2 30C00008 		.ascii	"0\300\000\010\370\010 ? \000\007\030?\000\340\020\010"
 1541      F808203F 
 1541      20000718 
 1541      3F00E010 
 1541      08
 1542 02f3 080810E0 		.ascii	"\010\010\020\340\000\017\020   \020\017\000\010\370"
 1542      000F1020 
 1542      2020100F 
 1542      0008F8
 1543 0302 08080808 		.ascii	"\010\010\010\010\360\000 ?!\001\001\001\000\000\340"
 1543      F000203F 
 1543      21010101 
 1543      0000E0
 1544 0311 10080808 		.ascii	"\020\010\010\010\020\340\000\017\030$$8PO\000\010\370"
 1544      10E0000F 
 1544      18242438 
 1544      504F0008 
 1544      F8
 1545 0322 88888888 		.ascii	"\210\210\210\210p\000 ? \000\003\0140 \000p\210\010"
 1545      7000203F 
 1545      2000030C 
 1545      30200070 
 1545      8808
 1546 0334 08083800 		.ascii	"\010\0108\000\0008 !!\"\034\000\030\010\010\370\010"
 1546      00382021 
 1546      21221C00 
 1546      180808F8 
 1546      08
 1547 0345 08180000 		.ascii	"\010\030\000\000\000 ? \000\000\000\010\370\010\000"
 1547      00203F20 
 1547      00000008 
 1547      F80800
 1548 0354 0008F808 		.ascii	"\000\010\370\010\000\037    \037\000\010x\210\000\000"
 1548      001F2020 
 1548      20201F00 
 1548      08788800 
 1548      00
 1549 0365 C8380800 		.ascii	"\3108\010\000\000\0078\016\001\000\000\370\010\000\370"
 1549      0007380E 
 1549      010000F8 
 1549      0800F8
 1550 0374 0008F800 		.ascii	"\000\010\370\000\003<\007\000\007<\003\000\010\030h"
 1550      033C0700 
 1550      073C0300 
 1550      081868
 1551 0383 80806818 		.ascii	"\200\200h\030\010 0,\003\003,0 \0108\310\000\3108\010"
ARM GAS  /var/folders/cb/0rfcg7_d4zbdkgdchwlcykcc0000gn/T//ccKAJtwl.s 			page 45


 1551      0820302C 
 1551      03032C30 
 1551      200838C8 
 1551      00C83808 
 1552 0397 00000020 		.ascii	"\000\000\000 ? \000\000\000\020\010\010\010\3108\010"
 1552      3F200000 
 1552      00100808 
 1552      08C83808 
 1553 03a7 00203826 		.ascii	"\000 8&!  \030\000\000\000\000\376\002\002\002\000\000"
 1553      21202018 
 1553      00000000 
 1553      FE020202 
 1553      0000
 1554 03b9 00007F40 		.ascii	"\000\000\177@@@\000\000\0140\300\000\000\000\000\000"
 1554      40400000 
 1554      0C30C000 
 1554      00000000 
 1555 03c9 00000106 		.ascii	"\000\000\001\0068\300\000\000\002\002\002\376\000\000"
 1555      38C00000 
 1555      020202FE 
 1555      0000
 1556 03d7 00004040 		.ascii	"\000\000@@@\177\000\000\000\000\000\004\002\002\002"
 1556      407F0000 
 1556      00000004 
 1556      020202
 1557 03e6 04000000 		.ascii	"\004\000\000\000\000\000\000\000\000\000\000\000\000"
 1557      00000000 
 1557      00000000 
 1557      00
 1558 03f3 00000000 		.ascii	"\000\000\000\000\000\200\200\200\200\200\200\200\200"
 1558      00808080 
 1558      80808080 
 1558      80
 1559 0400 00020204 		.ascii	"\000\002\002\004\000\000\000\000\000\000\000\000\000"
 1559      00000000 
 1559      00000000 
 1559      00
 1560 040d 00000000 		.ascii	"\000\000\000\000\000\200\200\200\200\000\000\000\031"
 1560      00808080 
 1560      80000000 
 1560      19
 1561 041a 24222222 		.ascii	"$\"\"\"? \010\370\000\200\200\000\000\000\000?\021 "
 1561      3F2008F8 
 1561      00808000 
 1561      0000003F 
 1561      1120
 1562 042c 20110E00 		.ascii	" \021\016\000\000\000\000\200\200\200\000\000\000\016"
 1562      00000080 
 1562      80800000 
 1562      000E
 1563 043a 11202020 		.ascii	"\021   \021\000\000\000\000\200\200\210\370\000\000"
 1563      11000000 
 1563      00808088 
 1563      F80000
 1564 0449 0E112020 		.ascii	"\016\021  \020? \000\000\200\200\200\200\000\000\000"
 1564      103F2000 
 1564      00808080 
ARM GAS  /var/folders/cb/0rfcg7_d4zbdkgdchwlcykcc0000gn/T//ccKAJtwl.s 			page 46


 1564      80000000 
 1565 0459 1F222222 		.ascii	"\037\"\"\"\"\023\000\000\200\200\360\210\210\210\030"
 1565      22130000 
 1565      8080F088 
 1565      888818
 1566 0468 0020203F 		.ascii	"\000  ?  \000\000\000\000\200\200\200\200\200\000\000"
 1566      20200000 
 1566      00008080 
 1566      80808000 
 1566      00
 1567 0479 6B949494 		.ascii	"k\224\224\224\223`\000\010\370\000\200\200\200\000\000"
 1567      93600008 
 1567      F8008080 
 1567      800000
 1568 0488 203F2100 		.ascii	" ?!\000\000 ? \000\200\230\230\000\000\000\000\000 "
 1568      00203F20 
 1568      00809898 
 1568      00000000 
 1568      0020
 1569 049a 203F2020 		.ascii	" ?  \000\000\000\000\000\200\230\230\000\000\000\300"
 1569      00000000 
 1569      00809898 
 1569      000000C0 
 1570 04aa 8080807F 		.ascii	"\200\200\200\177\000\000\010\370\000\000\200\200\200"
 1570      000008F8 
 1570      00008080 
 1570      80
 1571 04b7 00203F24 		.ascii	"\000 ?$\002-0 \000\000\010\010\370\000\000\000\000\000"
 1571      022D3020 
 1571      00000808 
 1571      F8000000 
 1571      0000
 1572 04c9 20203F20 		.ascii	"  ?  \000\000\200\200\200\200\200\200\200\000 ? \000"
 1572      20000080 
 1572      80808080 
 1572      80800020 
 1572      3F2000
 1573 04dc 3F20003F 		.ascii	"? \000?\200\200\000\200\200\200\000\000 ?!\000\000 "
 1573      80800080 
 1573      80800000 
 1573      203F2100 
 1573      0020
 1574 04ee 3F200000 		.ascii	"? \000\000\200\200\200\200\000\000\000\037    \037\000"
 1574      80808080 
 1574      0000001F 
 1574      20202020 
 1574      1F00
 1575 0500 80800080 		.ascii	"\200\200\000\200\200\000\000\000\200\377\241  \021\016"
 1575      80000000 
 1575      80FFA120 
 1575      20110E
 1576 050f 00000000 		.ascii	"\000\000\000\000\200\200\200\200\000\000\016\021  \240"
 1576      80808080 
 1576      00000E11 
 1576      2020A0
 1577 051e FF808080 		.ascii	"\377\200\200\200\200\000\200\200\200\000  ?! \000\001"
 1577      80008080 
ARM GAS  /var/folders/cb/0rfcg7_d4zbdkgdchwlcykcc0000gn/T//ccKAJtwl.s 			page 47


 1577      80002020 
 1577      3F212000 
 1577      01
 1578 052f 00000080 		.ascii	"\000\000\000\200\200\200\200\200\000\0003$$$$\031\000"
 1578      80808080 
 1578      00003324 
 1578      24242419 
 1578      00
 1579 0540 008080E0 		.ascii	"\000\200\200\340\200\200\000\000\000\000\000\037  \000"
 1579      80800000 
 1579      0000001F 
 1579      202000
 1580 054f 00808000 		.ascii	"\000\200\200\000\000\000\200\200\000\000\037   \020"
 1580      00008080 
 1580      00001F20 
 1580      202010
 1581 055e 3F208080 		.ascii	"? \200\200\200\000\000\200\200\200\000\001\0160\010"
 1581      80000080 
 1581      80800001 
 1581      0E3008
 1582 056d 06010080 		.ascii	"\006\001\000\200\200\000\200\000\200\200\200\0170\014"
 1582      80008000 
 1582      8080800F 
 1582      300C
 1583 057b 030C300F 		.ascii	"\003\0140\017\000\000\200\200\000\200\200\200\000\000"
 1583      00008080 
 1583      00808080 
 1583      0000
 1584 0589 20312E0E 		.ascii	" 1.\0161 \000\200\200\200\000\000\200\200\200\200\201"
 1584      31200080 
 1584      80800000 
 1584      80808080 
 1584      81
 1585 059a 8E701806 		.ascii	"\216p\030\006\001\000\000\200\200\200\200\200\200\000"
 1585      01000080 
 1585      80808080 
 1585      8000
 1586 05a8 0021302C 		.ascii	"\000!0,\"!0\000\000\000\000\000\200|\002\002\000\000"
 1586      22213000 
 1586      00000000 
 1586      807C0202 
 1586      0000
 1587 05ba 0000003F 		.ascii	"\000\000\000?@@\000\000\000\000\377\000\000\000\000"
 1587      40400000 
 1587      0000FF00 
 1587      000000
 1588 05c9 000000FF 		.ascii	"\000\000\000\377\000\000\000\000\002\002|\200\000\000"
 1588      00000000 
 1588      02027C80 
 1588      0000
 1589 05d7 00004040 		.ascii	"\000\000@@?\000\000\000\000\000\006\001\001\002\002"
 1589      3F000000 
 1589      00000601 
 1589      010202
 1590 05e6 04040000 		.ascii	"\004\004\000\000\000\000\000\000\000\000"
 1590      00000000 
 1590      0000
ARM GAS  /var/folders/cb/0rfcg7_d4zbdkgdchwlcykcc0000gn/T//ccKAJtwl.s 			page 48


 1591              		.text
 1592              	.Letext0:
 1593              		.file 2 "/Applications/ARM/arm-none-eabi/include/machine/_default_types.h"
 1594              		.file 3 "/Applications/ARM/arm-none-eabi/include/sys/_stdint.h"
 1595              		.file 4 "Drivers/CMSIS/Include/core_cm4.h"
 1596              		.file 5 "Drivers/CMSIS/Device/ST/STM32F4xx/Include/system_stm32f4xx.h"
 1597              		.file 6 "Drivers/CMSIS/Device/ST/STM32F4xx/Include/stm32f407xx.h"
 1598              		.file 7 "Drivers/STM32F4xx_HAL_Driver/Inc/stm32f4xx_hal_def.h"
 1599              		.file 8 "Drivers/STM32F4xx_HAL_Driver/Inc/stm32f4xx_hal_dma.h"
 1600              		.file 9 "Drivers/STM32F4xx_HAL_Driver/Inc/stm32f4xx_hal_i2c.h"
 1601              		.file 10 "Drivers/STM32F4xx_HAL_Driver/Inc/stm32f4xx_hal.h"
 1602              		.file 11 "USER/BSP/Inc/bsp_ascii.h"
ARM GAS  /var/folders/cb/0rfcg7_d4zbdkgdchwlcykcc0000gn/T//ccKAJtwl.s 			page 49

