ARM GAS  /var/folders/cb/0rfcg7_d4zbdkgdchwlcykcc0000gn/T//ccTg7FJC.s 			page 1


   1              		.cpu cortex-m4
   2              		.eabi_attribute 27, 1
   3              		.eabi_attribute 28, 1
   4              		.eabi_attribute 20, 1
   5              		.eabi_attribute 21, 1
   6              		.eabi_attribute 23, 3
   7              		.eabi_attribute 24, 1
   8              		.eabi_attribute 25, 1
   9              		.eabi_attribute 26, 1
  10              		.eabi_attribute 30, 1
  11              		.eabi_attribute 34, 1
  12              		.eabi_attribute 18, 4
  13              		.file	"bsp_TIMIN.c"
  14              		.text
  15              	.Ltext0:
  16              		.cfi_sections	.debug_frame
  17              		.section	.text.HAL_TIM_IC_CaptureCallback,"ax",%progbits
  18              		.align	1
  19              		.global	HAL_TIM_IC_CaptureCallback
  20              		.arch armv7e-m
  21              		.syntax unified
  22              		.thumb
  23              		.thumb_func
  24              		.fpu fpv4-sp-d16
  26              	HAL_TIM_IC_CaptureCallback:
  27              	.LVL0:
  28              	.LFB133:
  29              		.file 1 "USER/BSP/Src/bsp_TIMIN.c"
   1:USER/BSP/Src/bsp_TIMIN.c **** #include "bsp_TIMIN.h"
   2:USER/BSP/Src/bsp_TIMIN.c **** /**
   3:USER/BSP/Src/bsp_TIMIN.c ****  * @brief Êï∞ÊçÆÂ≠òÂÇ®ÁªìÊûÑ
   4:USER/BSP/Src/bsp_TIMIN.c ****  * 
   5:USER/BSP/Src/bsp_TIMIN.c ****  */
   6:USER/BSP/Src/bsp_TIMIN.c **** extern int  capture_Buf[4][2]; //Â≠òÊîæËÆ°Êï∞ÂÄº
   7:USER/BSP/Src/bsp_TIMIN.c **** extern int  capture_Cnt[4] ;//Áä∂ÊÄÅÊ†áÂøó‰Ωç
   8:USER/BSP/Src/bsp_TIMIN.c **** extern int  high_time[4]; //È´òÁîµÂπ≥Êó∂Èó¥
   9:USER/BSP/Src/bsp_TIMIN.c **** extern  TIM_HandleTypeDef htim1;
  10:USER/BSP/Src/bsp_TIMIN.c **** 
  11:USER/BSP/Src/bsp_TIMIN.c **** 
  12:USER/BSP/Src/bsp_TIMIN.c **** 
  13:USER/BSP/Src/bsp_TIMIN.c **** /**
  14:USER/BSP/Src/bsp_TIMIN.c ****  * @brief TIMÊçïËé∑‰∏≠ÈúÄË¶ÅÂú®Task‰∏≠‰ΩøÁî®Êú¨ÂáΩÊï∞ÔºåÂÆåÊàêPWMÁöÑÈ´òÁîµÂπ≥Êó∂Èó¥Ëé∑Âèñ
  15:USER/BSP/Src/bsp_TIMIN.c ****  * 
  16:USER/BSP/Src/bsp_TIMIN.c ****  */
  17:USER/BSP/Src/bsp_TIMIN.c **** /*
  18:USER/BSP/Src/bsp_TIMIN.c **** void bsp_TIMIN_C(void)
  19:USER/BSP/Src/bsp_TIMIN.c **** {
  20:USER/BSP/Src/bsp_TIMIN.c ****     // Channel 1
  21:USER/BSP/Src/bsp_TIMIN.c ****     switch (capture_Cnt[0])
  22:USER/BSP/Src/bsp_TIMIN.c ****     {
  23:USER/BSP/Src/bsp_TIMIN.c **** 	    case 0:
  24:USER/BSP/Src/bsp_TIMIN.c **** 		    capture_Cnt[0]++;
  25:USER/BSP/Src/bsp_TIMIN.c ****             __HAL_TIM_SET_CAPTUREPOLARITY(&htim1, TIM_CHANNEL_1, TIM_INPUTCHANNELPOLARITY_RISING);
  26:USER/BSP/Src/bsp_TIMIN.c ****             HAL_TIM_IC_Start_IT(&htim1, TIM_CHANNEL_1);	//ÂêØÂä®ËæìÂÖ•ÊçïËé∑       ÊàñËÄÖ: __HAL_TI
  27:USER/BSP/Src/bsp_TIMIN.c **** 		    break;
  28:USER/BSP/Src/bsp_TIMIN.c **** 	    case 3:
  29:USER/BSP/Src/bsp_TIMIN.c **** 		    if(capture_Buf[0][1]>capture_Buf[0][0]){
ARM GAS  /var/folders/cb/0rfcg7_d4zbdkgdchwlcykcc0000gn/T//ccTg7FJC.s 			page 2


  30:USER/BSP/Src/bsp_TIMIN.c **** 		   		high_time[0] = capture_Buf[0][1]- capture_Buf[0][0];  
  31:USER/BSP/Src/bsp_TIMIN.c **** 			}//È´òÁîµÂπ≥Êó∂Èó¥
  32:USER/BSP/Src/bsp_TIMIN.c **** 			else{
  33:USER/BSP/Src/bsp_TIMIN.c **** 				high_time[0] =capture_Buf[0][1]-capture_Buf[0][1];
  34:USER/BSP/Src/bsp_TIMIN.c **** 			}
  35:USER/BSP/Src/bsp_TIMIN.c **** 		    capture_Cnt[0] = 0;  //Ê∏ÖÁ©∫Ê†áÂøó‰Ωç
  36:USER/BSP/Src/bsp_TIMIN.c **** 			break;
  37:USER/BSP/Src/bsp_TIMIN.c ****     }
  38:USER/BSP/Src/bsp_TIMIN.c **** 
  39:USER/BSP/Src/bsp_TIMIN.c ****     // // Channel 2
  40:USER/BSP/Src/bsp_TIMIN.c ****     // switch (capture_Cnt[1])
  41:USER/BSP/Src/bsp_TIMIN.c ****     // {
  42:USER/BSP/Src/bsp_TIMIN.c **** 	//     case 0:
  43:USER/BSP/Src/bsp_TIMIN.c **** 	// 	    capture_Cnt[1]++;
  44:USER/BSP/Src/bsp_TIMIN.c ****     //         __HAL_TIM_SET_CAPTUREPOLARITY(&htim1, TIM_CHANNEL_2, TIM_INPUTCHANNELPOLARITY_RISING
  45:USER/BSP/Src/bsp_TIMIN.c ****     //         HAL_TIM_IC_Start_IT(&htim1, TIM_CHANNEL_2);	//ÂêØÂä®ËæìÂÖ•ÊçïËé∑       ÊàñËÄÖ: __HAL
  46:USER/BSP/Src/bsp_TIMIN.c **** 	// 	    break;
  47:USER/BSP/Src/bsp_TIMIN.c **** 	//     case 3:
  48:USER/BSP/Src/bsp_TIMIN.c **** 	// 	//    if(capture_Buf[1][1]>capture_Buf[1][0])
  49:USER/BSP/Src/bsp_TIMIN.c **** 	// 	   		high_time[1] = capture_Buf[1][1]- capture_Buf[1][0];    //È´òÁîµÂπ≥Êó∂Èó¥
  50:USER/BSP/Src/bsp_TIMIN.c **** 	// 		capture_Buf[1][0]=capture_Buf[1][1]=0;
  51:USER/BSP/Src/bsp_TIMIN.c **** 	// 	    capture_Cnt[1] = 0;  //Ê∏ÖÁ©∫Ê†áÂøó‰Ωç
  52:USER/BSP/Src/bsp_TIMIN.c **** 	// 		break;
  53:USER/BSP/Src/bsp_TIMIN.c ****     // }
  54:USER/BSP/Src/bsp_TIMIN.c **** 
  55:USER/BSP/Src/bsp_TIMIN.c ****     // // Channel 3
  56:USER/BSP/Src/bsp_TIMIN.c ****     // switch (capture_Cnt[2])
  57:USER/BSP/Src/bsp_TIMIN.c ****     // {
  58:USER/BSP/Src/bsp_TIMIN.c **** 	//     case 0:
  59:USER/BSP/Src/bsp_TIMIN.c **** 	// 	    capture_Cnt[2]++;
  60:USER/BSP/Src/bsp_TIMIN.c ****     //         __HAL_TIM_SET_CAPTUREPOLARITY(&htim1, TIM_CHANNEL_3, TIM_INPUTCHANNELPOLARITY_RISING
  61:USER/BSP/Src/bsp_TIMIN.c ****     //         HAL_TIM_IC_Start_IT(&htim1, TIM_CHANNEL_3);	//ÂêØÂä®ËæìÂÖ•ÊçïËé∑       ÊàñËÄÖ: __HAL
  62:USER/BSP/Src/bsp_TIMIN.c **** 	// 	    break;
  63:USER/BSP/Src/bsp_TIMIN.c **** 	//     case 3:
  64:USER/BSP/Src/bsp_TIMIN.c **** 	// 	//	if(capture_Buf[2][1]>capture_Buf[2][0])
  65:USER/BSP/Src/bsp_TIMIN.c **** 	// 	   		high_time[2] = capture_Buf[2][1]- capture_Buf[2][0];    //È´òÁîµÂπ≥Êó∂Èó¥
  66:USER/BSP/Src/bsp_TIMIN.c **** 	// 		capture_Buf[2][1]=capture_Buf[2][0]=0;
  67:USER/BSP/Src/bsp_TIMIN.c **** 	// 	    capture_Cnt[2] = 0;  //Ê∏ÖÁ©∫Ê†áÂøó‰Ωç
  68:USER/BSP/Src/bsp_TIMIN.c **** 	// 		break;
  69:USER/BSP/Src/bsp_TIMIN.c ****     // }
  70:USER/BSP/Src/bsp_TIMIN.c ****     
  71:USER/BSP/Src/bsp_TIMIN.c ****     // // Channel 4
  72:USER/BSP/Src/bsp_TIMIN.c ****     // switch (capture_Cnt[3])
  73:USER/BSP/Src/bsp_TIMIN.c ****     // {
  74:USER/BSP/Src/bsp_TIMIN.c **** 	//     case 0:
  75:USER/BSP/Src/bsp_TIMIN.c **** 	// 	    capture_Cnt[3]++;
  76:USER/BSP/Src/bsp_TIMIN.c ****     //         __HAL_TIM_SET_CAPTUREPOLARITY(&htim1, TIM_CHANNEL_4, TIM_INPUTCHANNELPOLARITY_RISING
  77:USER/BSP/Src/bsp_TIMIN.c ****     //         HAL_TIM_IC_Start_IT(&htim1, TIM_CHANNEL_4);	//ÂêØÂä®ËæìÂÖ•ÊçïËé∑       ÊàñËÄÖ: __HAL
  78:USER/BSP/Src/bsp_TIMIN.c **** 	// 	    break;
  79:USER/BSP/Src/bsp_TIMIN.c **** 	//     case 3:
  80:USER/BSP/Src/bsp_TIMIN.c **** 	// 	  //  if(capture_Buf[3][1]>capture_Buf[3][0])
  81:USER/BSP/Src/bsp_TIMIN.c **** 	// 	   		high_time[3] = capture_Buf[3][1]- capture_Buf[3][0];   
  82:USER/BSP/Src/bsp_TIMIN.c **** 	// 			    //È´òÁîµÂπ≥Êó∂Èó¥
  83:USER/BSP/Src/bsp_TIMIN.c **** 	// 		capture_Buf[3][1]=capture_Buf[3][0]=0;
  84:USER/BSP/Src/bsp_TIMIN.c **** 	// 	    capture_Cnt[3] = 0;  //Ê∏ÖÁ©∫Ê†áÂøó‰Ωç
  85:USER/BSP/Src/bsp_TIMIN.c **** 	// 		break;
  86:USER/BSP/Src/bsp_TIMIN.c ****     // }
ARM GAS  /var/folders/cb/0rfcg7_d4zbdkgdchwlcykcc0000gn/T//ccTg7FJC.s 			page 3


  87:USER/BSP/Src/bsp_TIMIN.c **** 
  88:USER/BSP/Src/bsp_TIMIN.c **** 
  89:USER/BSP/Src/bsp_TIMIN.c **** 
  90:USER/BSP/Src/bsp_TIMIN.c **** 
  91:USER/BSP/Src/bsp_TIMIN.c **** }
  92:USER/BSP/Src/bsp_TIMIN.c **** */
  93:USER/BSP/Src/bsp_TIMIN.c **** 
  94:USER/BSP/Src/bsp_TIMIN.c **** 
  95:USER/BSP/Src/bsp_TIMIN.c **** 
  96:USER/BSP/Src/bsp_TIMIN.c **** 
  97:USER/BSP/Src/bsp_TIMIN.c **** 
  98:USER/BSP/Src/bsp_TIMIN.c **** 
  99:USER/BSP/Src/bsp_TIMIN.c **** 
 100:USER/BSP/Src/bsp_TIMIN.c **** 
 101:USER/BSP/Src/bsp_TIMIN.c **** 
 102:USER/BSP/Src/bsp_TIMIN.c **** 
 103:USER/BSP/Src/bsp_TIMIN.c **** 
 104:USER/BSP/Src/bsp_TIMIN.c **** 
 105:USER/BSP/Src/bsp_TIMIN.c **** 
 106:USER/BSP/Src/bsp_TIMIN.c **** 
 107:USER/BSP/Src/bsp_TIMIN.c **** 
 108:USER/BSP/Src/bsp_TIMIN.c **** /**
 109:USER/BSP/Src/bsp_TIMIN.c ****  * @brief ÂáΩÊï∞ÊòØÂú®‰∏≠Êñ≠ÊúçÂä°ÂáΩÊï∞‰∏≠Ë¢´Ë∞ÉÁî®ÔºåËΩ¨Êç¢‰∏≠Êñ≠Ëß¶ÂèëÊù°‰ª∂
 110:USER/BSP/Src/bsp_TIMIN.c ****  * 
 111:USER/BSP/Src/bsp_TIMIN.c ****  * @param htim 
 112:USER/BSP/Src/bsp_TIMIN.c ****  */
 113:USER/BSP/Src/bsp_TIMIN.c **** void HAL_TIM_IC_CaptureCallback(TIM_HandleTypeDef *htim)
 114:USER/BSP/Src/bsp_TIMIN.c **** {
  30              		.loc 1 114 1 view -0
  31              		.cfi_startproc
  32              		@ args = 0, pretend = 0, frame = 0
  33              		@ frame_needed = 0, uses_anonymous_args = 0
  34              		.loc 1 114 1 is_stmt 0 view .LVU1
  35 0000 38B5     		push	{r3, r4, r5, lr}
  36              	.LCFI0:
  37              		.cfi_def_cfa_offset 16
  38              		.cfi_offset 3, -16
  39              		.cfi_offset 4, -12
  40              		.cfi_offset 5, -8
  41              		.cfi_offset 14, -4
 115:USER/BSP/Src/bsp_TIMIN.c **** 	  
 116:USER/BSP/Src/bsp_TIMIN.c ****     //Channel 1 caputure interrupt
 117:USER/BSP/Src/bsp_TIMIN.c **** 	/*	switch(capture_Cnt[0]){
 118:USER/BSP/Src/bsp_TIMIN.c **** 			case 0:
 119:USER/BSP/Src/bsp_TIMIN.c **** 				capture_Buf[0][0] = HAL_TIM_ReadCapturedValue(&htim1,TIM_CHANNEL_1);//Ëé∑ÂèñÂΩìÂâçÁöÑÊçïËé∑ÂÄº.
 120:USER/BSP/Src/bsp_TIMIN.c **** 				__HAL_TIM_SET_CAPTUREPOLARITY(&htim1,TIM_CHANNEL_1,TIM_ICPOLARITY_FALLING);  //ËÆæÁΩÆ‰∏∫‰∏ãÈôçÊ
 121:USER/BSP/Src/bsp_TIMIN.c **** 				capture_Cnt[0]++;
 122:USER/BSP/Src/bsp_TIMIN.c **** 				break;
 123:USER/BSP/Src/bsp_TIMIN.c **** 			case 1:
 124:USER/BSP/Src/bsp_TIMIN.c **** 				capture_Buf[0][1] = HAL_TIM_ReadCapturedValue(&htim1,TIM_CHANNEL_1);//Ëé∑ÂèñÂΩìÂâçÁöÑÊçïËé∑ÂÄº.
 125:USER/BSP/Src/bsp_TIMIN.c **** 				HAL_TIM_IC_Stop_IT(&htim1,TIM_CHANNEL_1); //ÂÅúÊ≠¢ÊçïËé∑ ;
 126:USER/BSP/Src/bsp_TIMIN.c **** 				high_time[0] = capture_Buf[0][1]- capture_Buf[0][0];
 127:USER/BSP/Src/bsp_TIMIN.c **** 				__HAL_TIM_SET_CAPTUREPOLARITY(&htim1,TIM_CHANNEL_1,TIM_ICPOLARITY_RISING); 
 128:USER/BSP/Src/bsp_TIMIN.c **** 				HAL_TIM_IC_Start_IT(&htim1, TIM_CHANNEL_1);	//ÂêØÂä®ËæìÂÖ•ÊçïËé∑       ÊàñËÄÖ: __HAL_TIM_ENABLE
 129:USER/BSP/Src/bsp_TIMIN.c **** 				capture_Cnt[0] = 0;
 130:USER/BSP/Src/bsp_TIMIN.c **** 				break; 
 131:USER/BSP/Src/bsp_TIMIN.c **** 		}
ARM GAS  /var/folders/cb/0rfcg7_d4zbdkgdchwlcykcc0000gn/T//ccTg7FJC.s 			page 4


 132:USER/BSP/Src/bsp_TIMIN.c **** 	
 133:USER/BSP/Src/bsp_TIMIN.c **** */
 134:USER/BSP/Src/bsp_TIMIN.c ****     // Channel 2 caputure interrupt
 135:USER/BSP/Src/bsp_TIMIN.c ****     	switch(capture_Cnt[1]){
  42              		.loc 1 135 6 is_stmt 1 view .LVU2
  43              		.loc 1 135 24 is_stmt 0 view .LVU3
  44 0002 574B     		ldr	r3, .L12
  45 0004 5B68     		ldr	r3, [r3, #4]
  46              		.loc 1 135 6 view .LVU4
  47 0006 73B1     		cbz	r3, .L2
  48 0008 012B     		cmp	r3, #1
  49 000a 21D0     		beq	.L3
  50              	.LVL1:
  51              	.L4:
 136:USER/BSP/Src/bsp_TIMIN.c **** 			case 0:
 137:USER/BSP/Src/bsp_TIMIN.c **** 		 		capture_Buf[1][0] = HAL_TIM_ReadCapturedValue(&htim1,TIM_CHANNEL_2);//Ëé∑ÂèñÂΩìÂâçÁöÑÊçïËé∑ÂÄº
 138:USER/BSP/Src/bsp_TIMIN.c **** 		 		__HAL_TIM_SET_CAPTUREPOLARITY(&htim1,TIM_CHANNEL_2,TIM_ICPOLARITY_FALLING);  //ËÆæÁΩÆ‰∏∫‰∏ãÈôç
 139:USER/BSP/Src/bsp_TIMIN.c **** 		 		capture_Cnt[1]++;
 140:USER/BSP/Src/bsp_TIMIN.c **** 		 		break;
 141:USER/BSP/Src/bsp_TIMIN.c **** 		 	case 1:
 142:USER/BSP/Src/bsp_TIMIN.c **** 		 		capture_Buf[1][1] = HAL_TIM_ReadCapturedValue(&htim1,TIM_CHANNEL_2);//Ëé∑ÂèñÂΩìÂâçÁöÑÊçïËé∑ÂÄº
 143:USER/BSP/Src/bsp_TIMIN.c **** 		 		HAL_TIM_IC_Stop_IT(&htim1,TIM_CHANNEL_2); //ÂÅúÊ≠¢ÊçïËé∑   ÊàñËÄÖ: __HAL_TIM_DISABLE(&htim5);
 144:USER/BSP/Src/bsp_TIMIN.c **** 		 		high_time[1] = capture_Buf[1][1]- capture_Buf[1][0];
 145:USER/BSP/Src/bsp_TIMIN.c **** 				__HAL_TIM_SET_CAPTUREPOLARITY(&htim1,TIM_CHANNEL_2,TIM_ICPOLARITY_RISING); 
 146:USER/BSP/Src/bsp_TIMIN.c **** 				HAL_TIM_IC_Start_IT(&htim1, TIM_CHANNEL_2);	//ÂêØÂä®ËæìÂÖ•ÊçïËé∑       ÊàñËÄÖ: __HAL_TIM_ENABLE
 147:USER/BSP/Src/bsp_TIMIN.c **** 				capture_Cnt[1] = 0;
 148:USER/BSP/Src/bsp_TIMIN.c **** 		 		break;
 149:USER/BSP/Src/bsp_TIMIN.c **** 		 }
 150:USER/BSP/Src/bsp_TIMIN.c **** 
 151:USER/BSP/Src/bsp_TIMIN.c **** 
 152:USER/BSP/Src/bsp_TIMIN.c ****         // Channel 3 caputure interrupt
 153:USER/BSP/Src/bsp_TIMIN.c ****          switch(capture_Cnt[2]){
  52              		.loc 1 153 10 is_stmt 1 view .LVU5
  53              		.loc 1 153 28 is_stmt 0 view .LVU6
  54 000c 544B     		ldr	r3, .L12
  55 000e 9B68     		ldr	r3, [r3, #8]
  56              		.loc 1 153 10 view .LVU7
  57 0010 002B     		cmp	r3, #0
  58 0012 3CD0     		beq	.L5
  59 0014 012B     		cmp	r3, #1
  60 0016 4FD0     		beq	.L6
  61              	.L7:
 154:USER/BSP/Src/bsp_TIMIN.c **** 		 	case 0:
 155:USER/BSP/Src/bsp_TIMIN.c **** 		 		capture_Buf[2][0] = HAL_TIM_ReadCapturedValue(&htim1,TIM_CHANNEL_3);//Ëé∑ÂèñÂΩìÂâçÁöÑÊçïËé∑ÂÄº
 156:USER/BSP/Src/bsp_TIMIN.c **** 		 		__HAL_TIM_SET_CAPTUREPOLARITY(&htim1,TIM_CHANNEL_3,TIM_ICPOLARITY_FALLING);  //ËÆæÁΩÆ‰∏∫‰∏ãÈôç
 157:USER/BSP/Src/bsp_TIMIN.c **** 		 		capture_Cnt[2]++;
 158:USER/BSP/Src/bsp_TIMIN.c **** 		 		break;
 159:USER/BSP/Src/bsp_TIMIN.c **** 		 	case 1:
 160:USER/BSP/Src/bsp_TIMIN.c **** 				capture_Buf[2][1] = HAL_TIM_ReadCapturedValue(&htim1,TIM_CHANNEL_3);//Ëé∑ÂèñÂΩìÂâçÁöÑÊçïËé∑ÂÄº.
 161:USER/BSP/Src/bsp_TIMIN.c **** 		 		HAL_TIM_IC_Stop_IT(&htim1,TIM_CHANNEL_3); //ÂÅúÊ≠¢ÊçïËé∑   ÊàñËÄÖ: __HAL_TIM_DISABLE(&htim5);
 162:USER/BSP/Src/bsp_TIMIN.c **** 				high_time[2] = capture_Buf[2][1]- capture_Buf[2][0];
 163:USER/BSP/Src/bsp_TIMIN.c **** 				__HAL_TIM_SET_CAPTUREPOLARITY(&htim1,TIM_CHANNEL_3,TIM_ICPOLARITY_RISING); 
 164:USER/BSP/Src/bsp_TIMIN.c **** 				HAL_TIM_IC_Start_IT(&htim1, TIM_CHANNEL_3);	//ÂêØÂä®ËæìÂÖ•ÊçïËé∑       ÊàñËÄÖ: __HAL_TIM_ENABLE
 165:USER/BSP/Src/bsp_TIMIN.c **** 				capture_Cnt[2] = 0;
 166:USER/BSP/Src/bsp_TIMIN.c **** 		 		break;   
 167:USER/BSP/Src/bsp_TIMIN.c **** 		}
 168:USER/BSP/Src/bsp_TIMIN.c **** 		
ARM GAS  /var/folders/cb/0rfcg7_d4zbdkgdchwlcykcc0000gn/T//ccTg7FJC.s 			page 5


 169:USER/BSP/Src/bsp_TIMIN.c **** 
 170:USER/BSP/Src/bsp_TIMIN.c ****        // Channel 4 caputure interrupt
 171:USER/BSP/Src/bsp_TIMIN.c ****         	switch(capture_Cnt[3]){
  62              		.loc 1 171 10 is_stmt 1 view .LVU8
  63              		.loc 1 171 28 is_stmt 0 view .LVU9
  64 0018 514B     		ldr	r3, .L12
  65 001a DB68     		ldr	r3, [r3, #12]
  66              		.loc 1 171 10 view .LVU10
  67 001c 002B     		cmp	r3, #0
  68 001e 6AD0     		beq	.L8
  69 0020 012B     		cmp	r3, #1
  70 0022 7DD0     		beq	.L9
  71              	.L1:
 172:USER/BSP/Src/bsp_TIMIN.c **** 		 	case 0:
 173:USER/BSP/Src/bsp_TIMIN.c **** 		 		capture_Buf[3][0] = HAL_TIM_ReadCapturedValue(&htim1,TIM_CHANNEL_4);//Ëé∑ÂèñÂΩìÂâçÁöÑÊçïËé∑ÂÄº
 174:USER/BSP/Src/bsp_TIMIN.c **** 		 		__HAL_TIM_SET_CAPTUREPOLARITY(&htim1,TIM_CHANNEL_4,TIM_ICPOLARITY_FALLING);  //ËÆæÁΩÆ‰∏∫‰∏ãÈôç
 175:USER/BSP/Src/bsp_TIMIN.c **** 		 		capture_Cnt[3]++;
 176:USER/BSP/Src/bsp_TIMIN.c **** 		 		break;
 177:USER/BSP/Src/bsp_TIMIN.c **** 		 	case 1:
 178:USER/BSP/Src/bsp_TIMIN.c **** 		 		capture_Buf[3][1] = HAL_TIM_ReadCapturedValue(&htim1,TIM_CHANNEL_4);//Ëé∑ÂèñÂΩìÂâçÁöÑÊçïËé∑ÂÄº
 179:USER/BSP/Src/bsp_TIMIN.c **** 				HAL_TIM_IC_Stop_IT(&htim1,TIM_CHANNEL_4);
 180:USER/BSP/Src/bsp_TIMIN.c **** 				high_time[3] = capture_Buf[3][1]- capture_Buf[3][0];
 181:USER/BSP/Src/bsp_TIMIN.c **** 				__HAL_TIM_SET_CAPTUREPOLARITY(&htim1,TIM_CHANNEL_4,TIM_ICPOLARITY_RISING); 
 182:USER/BSP/Src/bsp_TIMIN.c **** 				HAL_TIM_IC_Start_IT(&htim1, TIM_CHANNEL_4);	//ÂêØÂä®ËæìÂÖ•ÊçïËé∑       ÊàñËÄÖ: __HAL_TIM_ENABLE
 183:USER/BSP/Src/bsp_TIMIN.c **** 				capture_Cnt[3] = 0;
 184:USER/BSP/Src/bsp_TIMIN.c **** 		 		break;    
 185:USER/BSP/Src/bsp_TIMIN.c **** 				 
 186:USER/BSP/Src/bsp_TIMIN.c **** 		 }
 187:USER/BSP/Src/bsp_TIMIN.c **** 		 
 188:USER/BSP/Src/bsp_TIMIN.c **** 
 189:USER/BSP/Src/bsp_TIMIN.c **** 	
 190:USER/BSP/Src/bsp_TIMIN.c **** 	
 191:USER/BSP/Src/bsp_TIMIN.c **** 	
 192:USER/BSP/Src/bsp_TIMIN.c **** }
  72              		.loc 1 192 1 view .LVU11
  73 0024 38BD     		pop	{r3, r4, r5, pc}
  74              	.LVL2:
  75              	.L2:
 137:USER/BSP/Src/bsp_TIMIN.c **** 		 		__HAL_TIM_SET_CAPTUREPOLARITY(&htim1,TIM_CHANNEL_2,TIM_ICPOLARITY_FALLING);  //ËÆæÁΩÆ‰∏∫‰∏ãÈôç
  76              		.loc 1 137 6 is_stmt 1 view .LVU12
 137:USER/BSP/Src/bsp_TIMIN.c **** 		 		__HAL_TIM_SET_CAPTUREPOLARITY(&htim1,TIM_CHANNEL_2,TIM_ICPOLARITY_FALLING);  //ËÆæÁΩÆ‰∏∫‰∏ãÈôç
  77              		.loc 1 137 26 is_stmt 0 view .LVU13
  78 0026 4F4C     		ldr	r4, .L12+4
  79 0028 0421     		movs	r1, #4
  80 002a 2046     		mov	r0, r4
  81              	.LVL3:
 137:USER/BSP/Src/bsp_TIMIN.c **** 		 		__HAL_TIM_SET_CAPTUREPOLARITY(&htim1,TIM_CHANNEL_2,TIM_ICPOLARITY_FALLING);  //ËÆæÁΩÆ‰∏∫‰∏ãÈôç
  82              		.loc 1 137 26 view .LVU14
  83 002c FFF7FEFF 		bl	HAL_TIM_ReadCapturedValue
  84              	.LVL4:
 137:USER/BSP/Src/bsp_TIMIN.c **** 		 		__HAL_TIM_SET_CAPTUREPOLARITY(&htim1,TIM_CHANNEL_2,TIM_ICPOLARITY_FALLING);  //ËÆæÁΩÆ‰∏∫‰∏ãÈôç
  85              		.loc 1 137 24 view .LVU15
  86 0030 4D4B     		ldr	r3, .L12+8
  87 0032 9860     		str	r0, [r3, #8]
 138:USER/BSP/Src/bsp_TIMIN.c **** 		 		capture_Cnt[1]++;
  88              		.loc 1 138 6 is_stmt 1 view .LVU16
 138:USER/BSP/Src/bsp_TIMIN.c **** 		 		capture_Cnt[1]++;
ARM GAS  /var/folders/cb/0rfcg7_d4zbdkgdchwlcykcc0000gn/T//ccTg7FJC.s 			page 6


  89              		.loc 1 138 6 view .LVU17
  90 0034 2368     		ldr	r3, [r4]
  91 0036 1A6A     		ldr	r2, [r3, #32]
  92 0038 22F0A002 		bic	r2, r2, #160
  93 003c 1A62     		str	r2, [r3, #32]
 138:USER/BSP/Src/bsp_TIMIN.c **** 		 		capture_Cnt[1]++;
  94              		.loc 1 138 6 view .LVU18
  95 003e 1A6A     		ldr	r2, [r3, #32]
  96 0040 42F02002 		orr	r2, r2, #32
  97 0044 1A62     		str	r2, [r3, #32]
 138:USER/BSP/Src/bsp_TIMIN.c **** 		 		capture_Cnt[1]++;
  98              		.loc 1 138 6 view .LVU19
 139:USER/BSP/Src/bsp_TIMIN.c **** 		 		break;
  99              		.loc 1 139 6 view .LVU20
 139:USER/BSP/Src/bsp_TIMIN.c **** 		 		break;
 100              		.loc 1 139 17 is_stmt 0 view .LVU21
 101 0046 464A     		ldr	r2, .L12
 102 0048 5368     		ldr	r3, [r2, #4]
 139:USER/BSP/Src/bsp_TIMIN.c **** 		 		break;
 103              		.loc 1 139 20 view .LVU22
 104 004a 0133     		adds	r3, r3, #1
 105 004c 5360     		str	r3, [r2, #4]
 140:USER/BSP/Src/bsp_TIMIN.c **** 		 	case 1:
 106              		.loc 1 140 6 is_stmt 1 view .LVU23
 107 004e DDE7     		b	.L4
 108              	.LVL5:
 109              	.L3:
 142:USER/BSP/Src/bsp_TIMIN.c **** 		 		HAL_TIM_IC_Stop_IT(&htim1,TIM_CHANNEL_2); //ÂÅúÊ≠¢ÊçïËé∑   ÊàñËÄÖ: __HAL_TIM_DISABLE(&htim5);
 110              		.loc 1 142 6 view .LVU24
 142:USER/BSP/Src/bsp_TIMIN.c **** 		 		HAL_TIM_IC_Stop_IT(&htim1,TIM_CHANNEL_2); //ÂÅúÊ≠¢ÊçïËé∑   ÊàñËÄÖ: __HAL_TIM_DISABLE(&htim5);
 111              		.loc 1 142 26 is_stmt 0 view .LVU25
 112 0050 444C     		ldr	r4, .L12+4
 113 0052 0421     		movs	r1, #4
 114 0054 2046     		mov	r0, r4
 115              	.LVL6:
 142:USER/BSP/Src/bsp_TIMIN.c **** 		 		HAL_TIM_IC_Stop_IT(&htim1,TIM_CHANNEL_2); //ÂÅúÊ≠¢ÊçïËé∑   ÊàñËÄÖ: __HAL_TIM_DISABLE(&htim5);
 116              		.loc 1 142 26 view .LVU26
 117 0056 FFF7FEFF 		bl	HAL_TIM_ReadCapturedValue
 118              	.LVL7:
 142:USER/BSP/Src/bsp_TIMIN.c **** 		 		HAL_TIM_IC_Stop_IT(&htim1,TIM_CHANNEL_2); //ÂÅúÊ≠¢ÊçïËé∑   ÊàñËÄÖ: __HAL_TIM_DISABLE(&htim5);
 119              		.loc 1 142 24 view .LVU27
 120 005a 434D     		ldr	r5, .L12+8
 121 005c E860     		str	r0, [r5, #12]
 143:USER/BSP/Src/bsp_TIMIN.c **** 		 		high_time[1] = capture_Buf[1][1]- capture_Buf[1][0];
 122              		.loc 1 143 6 is_stmt 1 view .LVU28
 123 005e 0421     		movs	r1, #4
 124 0060 2046     		mov	r0, r4
 125 0062 FFF7FEFF 		bl	HAL_TIM_IC_Stop_IT
 126              	.LVL8:
 144:USER/BSP/Src/bsp_TIMIN.c **** 				__HAL_TIM_SET_CAPTUREPOLARITY(&htim1,TIM_CHANNEL_2,TIM_ICPOLARITY_RISING); 
 127              		.loc 1 144 6 view .LVU29
 144:USER/BSP/Src/bsp_TIMIN.c **** 				__HAL_TIM_SET_CAPTUREPOLARITY(&htim1,TIM_CHANNEL_2,TIM_ICPOLARITY_RISING); 
 128              		.loc 1 144 35 is_stmt 0 view .LVU30
 129 0066 EB68     		ldr	r3, [r5, #12]
 144:USER/BSP/Src/bsp_TIMIN.c **** 				__HAL_TIM_SET_CAPTUREPOLARITY(&htim1,TIM_CHANNEL_2,TIM_ICPOLARITY_RISING); 
 130              		.loc 1 144 54 view .LVU31
 131 0068 AA68     		ldr	r2, [r5, #8]
ARM GAS  /var/folders/cb/0rfcg7_d4zbdkgdchwlcykcc0000gn/T//ccTg7FJC.s 			page 7


 144:USER/BSP/Src/bsp_TIMIN.c **** 				__HAL_TIM_SET_CAPTUREPOLARITY(&htim1,TIM_CHANNEL_2,TIM_ICPOLARITY_RISING); 
 132              		.loc 1 144 38 view .LVU32
 133 006a 9B1A     		subs	r3, r3, r2
 144:USER/BSP/Src/bsp_TIMIN.c **** 				__HAL_TIM_SET_CAPTUREPOLARITY(&htim1,TIM_CHANNEL_2,TIM_ICPOLARITY_RISING); 
 134              		.loc 1 144 19 view .LVU33
 135 006c 3F4A     		ldr	r2, .L12+12
 136 006e 5360     		str	r3, [r2, #4]
 145:USER/BSP/Src/bsp_TIMIN.c **** 				HAL_TIM_IC_Start_IT(&htim1, TIM_CHANNEL_2);	//ÂêØÂä®ËæìÂÖ•ÊçïËé∑       ÊàñËÄÖ: __HAL_TIM_ENABLE
 137              		.loc 1 145 5 is_stmt 1 view .LVU34
 145:USER/BSP/Src/bsp_TIMIN.c **** 				HAL_TIM_IC_Start_IT(&htim1, TIM_CHANNEL_2);	//ÂêØÂä®ËæìÂÖ•ÊçïËé∑       ÊàñËÄÖ: __HAL_TIM_ENABLE
 138              		.loc 1 145 5 view .LVU35
 139 0070 2368     		ldr	r3, [r4]
 140 0072 1A6A     		ldr	r2, [r3, #32]
 141 0074 22F0A002 		bic	r2, r2, #160
 142 0078 1A62     		str	r2, [r3, #32]
 145:USER/BSP/Src/bsp_TIMIN.c **** 				HAL_TIM_IC_Start_IT(&htim1, TIM_CHANNEL_2);	//ÂêØÂä®ËæìÂÖ•ÊçïËé∑       ÊàñËÄÖ: __HAL_TIM_ENABLE
 143              		.loc 1 145 5 view .LVU36
 144 007a 1A6A     		ldr	r2, [r3, #32]
 145 007c 1A62     		str	r2, [r3, #32]
 145:USER/BSP/Src/bsp_TIMIN.c **** 				HAL_TIM_IC_Start_IT(&htim1, TIM_CHANNEL_2);	//ÂêØÂä®ËæìÂÖ•ÊçïËé∑       ÊàñËÄÖ: __HAL_TIM_ENABLE
 146              		.loc 1 145 5 view .LVU37
 146:USER/BSP/Src/bsp_TIMIN.c **** 				capture_Cnt[1] = 0;
 147              		.loc 1 146 5 view .LVU38
 148 007e 0421     		movs	r1, #4
 149 0080 2046     		mov	r0, r4
 150 0082 FFF7FEFF 		bl	HAL_TIM_IC_Start_IT
 151              	.LVL9:
 147:USER/BSP/Src/bsp_TIMIN.c **** 		 		break;
 152              		.loc 1 147 5 view .LVU39
 147:USER/BSP/Src/bsp_TIMIN.c **** 		 		break;
 153              		.loc 1 147 20 is_stmt 0 view .LVU40
 154 0086 364B     		ldr	r3, .L12
 155 0088 0022     		movs	r2, #0
 156 008a 5A60     		str	r2, [r3, #4]
 148:USER/BSP/Src/bsp_TIMIN.c **** 		 }
 157              		.loc 1 148 6 is_stmt 1 view .LVU41
 158 008c BEE7     		b	.L4
 159              	.L5:
 155:USER/BSP/Src/bsp_TIMIN.c **** 		 		__HAL_TIM_SET_CAPTUREPOLARITY(&htim1,TIM_CHANNEL_3,TIM_ICPOLARITY_FALLING);  //ËÆæÁΩÆ‰∏∫‰∏ãÈôç
 160              		.loc 1 155 6 view .LVU42
 155:USER/BSP/Src/bsp_TIMIN.c **** 		 		__HAL_TIM_SET_CAPTUREPOLARITY(&htim1,TIM_CHANNEL_3,TIM_ICPOLARITY_FALLING);  //ËÆæÁΩÆ‰∏∫‰∏ãÈôç
 161              		.loc 1 155 26 is_stmt 0 view .LVU43
 162 008e 354C     		ldr	r4, .L12+4
 163 0090 0821     		movs	r1, #8
 164 0092 2046     		mov	r0, r4
 165 0094 FFF7FEFF 		bl	HAL_TIM_ReadCapturedValue
 166              	.LVL10:
 155:USER/BSP/Src/bsp_TIMIN.c **** 		 		__HAL_TIM_SET_CAPTUREPOLARITY(&htim1,TIM_CHANNEL_3,TIM_ICPOLARITY_FALLING);  //ËÆæÁΩÆ‰∏∫‰∏ãÈôç
 167              		.loc 1 155 24 view .LVU44
 168 0098 334B     		ldr	r3, .L12+8
 169 009a 1861     		str	r0, [r3, #16]
 156:USER/BSP/Src/bsp_TIMIN.c **** 		 		capture_Cnt[2]++;
 170              		.loc 1 156 6 is_stmt 1 view .LVU45
 156:USER/BSP/Src/bsp_TIMIN.c **** 		 		capture_Cnt[2]++;
 171              		.loc 1 156 6 view .LVU46
 172 009c 2368     		ldr	r3, [r4]
 173 009e 1A6A     		ldr	r2, [r3, #32]
ARM GAS  /var/folders/cb/0rfcg7_d4zbdkgdchwlcykcc0000gn/T//ccTg7FJC.s 			page 8


 174 00a0 22F42062 		bic	r2, r2, #2560
 175 00a4 1A62     		str	r2, [r3, #32]
 156:USER/BSP/Src/bsp_TIMIN.c **** 		 		capture_Cnt[2]++;
 176              		.loc 1 156 6 view .LVU47
 177 00a6 1A6A     		ldr	r2, [r3, #32]
 178 00a8 42F40072 		orr	r2, r2, #512
 179 00ac 1A62     		str	r2, [r3, #32]
 156:USER/BSP/Src/bsp_TIMIN.c **** 		 		capture_Cnt[2]++;
 180              		.loc 1 156 6 view .LVU48
 157:USER/BSP/Src/bsp_TIMIN.c **** 		 		break;
 181              		.loc 1 157 6 view .LVU49
 157:USER/BSP/Src/bsp_TIMIN.c **** 		 		break;
 182              		.loc 1 157 17 is_stmt 0 view .LVU50
 183 00ae 2C4A     		ldr	r2, .L12
 184 00b0 9368     		ldr	r3, [r2, #8]
 157:USER/BSP/Src/bsp_TIMIN.c **** 		 		break;
 185              		.loc 1 157 20 view .LVU51
 186 00b2 0133     		adds	r3, r3, #1
 187 00b4 9360     		str	r3, [r2, #8]
 158:USER/BSP/Src/bsp_TIMIN.c **** 		 	case 1:
 188              		.loc 1 158 6 is_stmt 1 view .LVU52
 189 00b6 AFE7     		b	.L7
 190              	.L6:
 160:USER/BSP/Src/bsp_TIMIN.c **** 		 		HAL_TIM_IC_Stop_IT(&htim1,TIM_CHANNEL_3); //ÂÅúÊ≠¢ÊçïËé∑   ÊàñËÄÖ: __HAL_TIM_DISABLE(&htim5);
 191              		.loc 1 160 5 view .LVU53
 160:USER/BSP/Src/bsp_TIMIN.c **** 		 		HAL_TIM_IC_Stop_IT(&htim1,TIM_CHANNEL_3); //ÂÅúÊ≠¢ÊçïËé∑   ÊàñËÄÖ: __HAL_TIM_DISABLE(&htim5);
 192              		.loc 1 160 25 is_stmt 0 view .LVU54
 193 00b8 2A4C     		ldr	r4, .L12+4
 194 00ba 0821     		movs	r1, #8
 195 00bc 2046     		mov	r0, r4
 196 00be FFF7FEFF 		bl	HAL_TIM_ReadCapturedValue
 197              	.LVL11:
 160:USER/BSP/Src/bsp_TIMIN.c **** 		 		HAL_TIM_IC_Stop_IT(&htim1,TIM_CHANNEL_3); //ÂÅúÊ≠¢ÊçïËé∑   ÊàñËÄÖ: __HAL_TIM_DISABLE(&htim5);
 198              		.loc 1 160 23 view .LVU55
 199 00c2 294D     		ldr	r5, .L12+8
 200 00c4 6861     		str	r0, [r5, #20]
 161:USER/BSP/Src/bsp_TIMIN.c **** 				high_time[2] = capture_Buf[2][1]- capture_Buf[2][0];
 201              		.loc 1 161 6 is_stmt 1 view .LVU56
 202 00c6 0821     		movs	r1, #8
 203 00c8 2046     		mov	r0, r4
 204 00ca FFF7FEFF 		bl	HAL_TIM_IC_Stop_IT
 205              	.LVL12:
 162:USER/BSP/Src/bsp_TIMIN.c **** 				__HAL_TIM_SET_CAPTUREPOLARITY(&htim1,TIM_CHANNEL_3,TIM_ICPOLARITY_RISING); 
 206              		.loc 1 162 5 view .LVU57
 162:USER/BSP/Src/bsp_TIMIN.c **** 				__HAL_TIM_SET_CAPTUREPOLARITY(&htim1,TIM_CHANNEL_3,TIM_ICPOLARITY_RISING); 
 207              		.loc 1 162 34 is_stmt 0 view .LVU58
 208 00ce 6B69     		ldr	r3, [r5, #20]
 162:USER/BSP/Src/bsp_TIMIN.c **** 				__HAL_TIM_SET_CAPTUREPOLARITY(&htim1,TIM_CHANNEL_3,TIM_ICPOLARITY_RISING); 
 209              		.loc 1 162 53 view .LVU59
 210 00d0 2A69     		ldr	r2, [r5, #16]
 162:USER/BSP/Src/bsp_TIMIN.c **** 				__HAL_TIM_SET_CAPTUREPOLARITY(&htim1,TIM_CHANNEL_3,TIM_ICPOLARITY_RISING); 
 211              		.loc 1 162 37 view .LVU60
 212 00d2 9B1A     		subs	r3, r3, r2
 162:USER/BSP/Src/bsp_TIMIN.c **** 				__HAL_TIM_SET_CAPTUREPOLARITY(&htim1,TIM_CHANNEL_3,TIM_ICPOLARITY_RISING); 
 213              		.loc 1 162 18 view .LVU61
 214 00d4 254A     		ldr	r2, .L12+12
 215 00d6 9360     		str	r3, [r2, #8]
ARM GAS  /var/folders/cb/0rfcg7_d4zbdkgdchwlcykcc0000gn/T//ccTg7FJC.s 			page 9


 163:USER/BSP/Src/bsp_TIMIN.c **** 				HAL_TIM_IC_Start_IT(&htim1, TIM_CHANNEL_3);	//ÂêØÂä®ËæìÂÖ•ÊçïËé∑       ÊàñËÄÖ: __HAL_TIM_ENABLE
 216              		.loc 1 163 5 is_stmt 1 view .LVU62
 163:USER/BSP/Src/bsp_TIMIN.c **** 				HAL_TIM_IC_Start_IT(&htim1, TIM_CHANNEL_3);	//ÂêØÂä®ËæìÂÖ•ÊçïËé∑       ÊàñËÄÖ: __HAL_TIM_ENABLE
 217              		.loc 1 163 5 view .LVU63
 218 00d8 2368     		ldr	r3, [r4]
 219 00da 1A6A     		ldr	r2, [r3, #32]
 220 00dc 22F42062 		bic	r2, r2, #2560
 221 00e0 1A62     		str	r2, [r3, #32]
 163:USER/BSP/Src/bsp_TIMIN.c **** 				HAL_TIM_IC_Start_IT(&htim1, TIM_CHANNEL_3);	//ÂêØÂä®ËæìÂÖ•ÊçïËé∑       ÊàñËÄÖ: __HAL_TIM_ENABLE
 222              		.loc 1 163 5 view .LVU64
 223 00e2 1A6A     		ldr	r2, [r3, #32]
 224 00e4 1A62     		str	r2, [r3, #32]
 163:USER/BSP/Src/bsp_TIMIN.c **** 				HAL_TIM_IC_Start_IT(&htim1, TIM_CHANNEL_3);	//ÂêØÂä®ËæìÂÖ•ÊçïËé∑       ÊàñËÄÖ: __HAL_TIM_ENABLE
 225              		.loc 1 163 5 view .LVU65
 164:USER/BSP/Src/bsp_TIMIN.c **** 				capture_Cnt[2] = 0;
 226              		.loc 1 164 5 view .LVU66
 227 00e6 0821     		movs	r1, #8
 228 00e8 2046     		mov	r0, r4
 229 00ea FFF7FEFF 		bl	HAL_TIM_IC_Start_IT
 230              	.LVL13:
 165:USER/BSP/Src/bsp_TIMIN.c **** 		 		break;   
 231              		.loc 1 165 5 view .LVU67
 165:USER/BSP/Src/bsp_TIMIN.c **** 		 		break;   
 232              		.loc 1 165 20 is_stmt 0 view .LVU68
 233 00ee 1C4B     		ldr	r3, .L12
 234 00f0 0022     		movs	r2, #0
 235 00f2 9A60     		str	r2, [r3, #8]
 166:USER/BSP/Src/bsp_TIMIN.c **** 		}
 236              		.loc 1 166 6 is_stmt 1 view .LVU69
 237 00f4 90E7     		b	.L7
 238              	.L8:
 173:USER/BSP/Src/bsp_TIMIN.c **** 		 		__HAL_TIM_SET_CAPTUREPOLARITY(&htim1,TIM_CHANNEL_4,TIM_ICPOLARITY_FALLING);  //ËÆæÁΩÆ‰∏∫‰∏ãÈôç
 239              		.loc 1 173 6 view .LVU70
 173:USER/BSP/Src/bsp_TIMIN.c **** 		 		__HAL_TIM_SET_CAPTUREPOLARITY(&htim1,TIM_CHANNEL_4,TIM_ICPOLARITY_FALLING);  //ËÆæÁΩÆ‰∏∫‰∏ãÈôç
 240              		.loc 1 173 26 is_stmt 0 view .LVU71
 241 00f6 1B4C     		ldr	r4, .L12+4
 242 00f8 0C21     		movs	r1, #12
 243 00fa 2046     		mov	r0, r4
 244 00fc FFF7FEFF 		bl	HAL_TIM_ReadCapturedValue
 245              	.LVL14:
 173:USER/BSP/Src/bsp_TIMIN.c **** 		 		__HAL_TIM_SET_CAPTUREPOLARITY(&htim1,TIM_CHANNEL_4,TIM_ICPOLARITY_FALLING);  //ËÆæÁΩÆ‰∏∫‰∏ãÈôç
 246              		.loc 1 173 24 view .LVU72
 247 0100 194B     		ldr	r3, .L12+8
 248 0102 9861     		str	r0, [r3, #24]
 174:USER/BSP/Src/bsp_TIMIN.c **** 		 		capture_Cnt[3]++;
 249              		.loc 1 174 6 is_stmt 1 view .LVU73
 174:USER/BSP/Src/bsp_TIMIN.c **** 		 		capture_Cnt[3]++;
 250              		.loc 1 174 6 view .LVU74
 251 0104 2368     		ldr	r3, [r4]
 252 0106 1A6A     		ldr	r2, [r3, #32]
 253 0108 22F42042 		bic	r2, r2, #40960
 254 010c 1A62     		str	r2, [r3, #32]
 174:USER/BSP/Src/bsp_TIMIN.c **** 		 		capture_Cnt[3]++;
 255              		.loc 1 174 6 view .LVU75
 256 010e 1A6A     		ldr	r2, [r3, #32]
 257 0110 42F40052 		orr	r2, r2, #8192
 258 0114 1A62     		str	r2, [r3, #32]
ARM GAS  /var/folders/cb/0rfcg7_d4zbdkgdchwlcykcc0000gn/T//ccTg7FJC.s 			page 10


 174:USER/BSP/Src/bsp_TIMIN.c **** 		 		capture_Cnt[3]++;
 259              		.loc 1 174 6 view .LVU76
 175:USER/BSP/Src/bsp_TIMIN.c **** 		 		break;
 260              		.loc 1 175 6 view .LVU77
 175:USER/BSP/Src/bsp_TIMIN.c **** 		 		break;
 261              		.loc 1 175 17 is_stmt 0 view .LVU78
 262 0116 124A     		ldr	r2, .L12
 263 0118 D368     		ldr	r3, [r2, #12]
 175:USER/BSP/Src/bsp_TIMIN.c **** 		 		break;
 264              		.loc 1 175 20 view .LVU79
 265 011a 0133     		adds	r3, r3, #1
 266 011c D360     		str	r3, [r2, #12]
 176:USER/BSP/Src/bsp_TIMIN.c **** 		 	case 1:
 267              		.loc 1 176 6 is_stmt 1 view .LVU80
 268 011e 81E7     		b	.L1
 269              	.L9:
 178:USER/BSP/Src/bsp_TIMIN.c **** 				HAL_TIM_IC_Stop_IT(&htim1,TIM_CHANNEL_4);
 270              		.loc 1 178 6 view .LVU81
 178:USER/BSP/Src/bsp_TIMIN.c **** 				HAL_TIM_IC_Stop_IT(&htim1,TIM_CHANNEL_4);
 271              		.loc 1 178 26 is_stmt 0 view .LVU82
 272 0120 104C     		ldr	r4, .L12+4
 273 0122 0C21     		movs	r1, #12
 274 0124 2046     		mov	r0, r4
 275 0126 FFF7FEFF 		bl	HAL_TIM_ReadCapturedValue
 276              	.LVL15:
 178:USER/BSP/Src/bsp_TIMIN.c **** 				HAL_TIM_IC_Stop_IT(&htim1,TIM_CHANNEL_4);
 277              		.loc 1 178 24 view .LVU83
 278 012a 0F4D     		ldr	r5, .L12+8
 279 012c E861     		str	r0, [r5, #28]
 179:USER/BSP/Src/bsp_TIMIN.c **** 				high_time[3] = capture_Buf[3][1]- capture_Buf[3][0];
 280              		.loc 1 179 5 is_stmt 1 view .LVU84
 281 012e 0C21     		movs	r1, #12
 282 0130 2046     		mov	r0, r4
 283 0132 FFF7FEFF 		bl	HAL_TIM_IC_Stop_IT
 284              	.LVL16:
 180:USER/BSP/Src/bsp_TIMIN.c **** 				__HAL_TIM_SET_CAPTUREPOLARITY(&htim1,TIM_CHANNEL_4,TIM_ICPOLARITY_RISING); 
 285              		.loc 1 180 5 view .LVU85
 180:USER/BSP/Src/bsp_TIMIN.c **** 				__HAL_TIM_SET_CAPTUREPOLARITY(&htim1,TIM_CHANNEL_4,TIM_ICPOLARITY_RISING); 
 286              		.loc 1 180 34 is_stmt 0 view .LVU86
 287 0136 EB69     		ldr	r3, [r5, #28]
 180:USER/BSP/Src/bsp_TIMIN.c **** 				__HAL_TIM_SET_CAPTUREPOLARITY(&htim1,TIM_CHANNEL_4,TIM_ICPOLARITY_RISING); 
 288              		.loc 1 180 53 view .LVU87
 289 0138 AA69     		ldr	r2, [r5, #24]
 180:USER/BSP/Src/bsp_TIMIN.c **** 				__HAL_TIM_SET_CAPTUREPOLARITY(&htim1,TIM_CHANNEL_4,TIM_ICPOLARITY_RISING); 
 290              		.loc 1 180 37 view .LVU88
 291 013a 9B1A     		subs	r3, r3, r2
 180:USER/BSP/Src/bsp_TIMIN.c **** 				__HAL_TIM_SET_CAPTUREPOLARITY(&htim1,TIM_CHANNEL_4,TIM_ICPOLARITY_RISING); 
 292              		.loc 1 180 18 view .LVU89
 293 013c 0B4A     		ldr	r2, .L12+12
 294 013e D360     		str	r3, [r2, #12]
 181:USER/BSP/Src/bsp_TIMIN.c **** 				HAL_TIM_IC_Start_IT(&htim1, TIM_CHANNEL_4);	//ÂêØÂä®ËæìÂÖ•ÊçïËé∑       ÊàñËÄÖ: __HAL_TIM_ENABLE
 295              		.loc 1 181 5 is_stmt 1 view .LVU90
 181:USER/BSP/Src/bsp_TIMIN.c **** 				HAL_TIM_IC_Start_IT(&htim1, TIM_CHANNEL_4);	//ÂêØÂä®ËæìÂÖ•ÊçïËé∑       ÊàñËÄÖ: __HAL_TIM_ENABLE
 296              		.loc 1 181 5 view .LVU91
 297 0140 2368     		ldr	r3, [r4]
 298 0142 1A6A     		ldr	r2, [r3, #32]
 299 0144 22F42042 		bic	r2, r2, #40960
ARM GAS  /var/folders/cb/0rfcg7_d4zbdkgdchwlcykcc0000gn/T//ccTg7FJC.s 			page 11


 300 0148 1A62     		str	r2, [r3, #32]
 181:USER/BSP/Src/bsp_TIMIN.c **** 				HAL_TIM_IC_Start_IT(&htim1, TIM_CHANNEL_4);	//ÂêØÂä®ËæìÂÖ•ÊçïËé∑       ÊàñËÄÖ: __HAL_TIM_ENABLE
 301              		.loc 1 181 5 view .LVU92
 302 014a 1A6A     		ldr	r2, [r3, #32]
 303 014c 1A62     		str	r2, [r3, #32]
 181:USER/BSP/Src/bsp_TIMIN.c **** 				HAL_TIM_IC_Start_IT(&htim1, TIM_CHANNEL_4);	//ÂêØÂä®ËæìÂÖ•ÊçïËé∑       ÊàñËÄÖ: __HAL_TIM_ENABLE
 304              		.loc 1 181 5 view .LVU93
 182:USER/BSP/Src/bsp_TIMIN.c **** 				capture_Cnt[3] = 0;
 305              		.loc 1 182 5 view .LVU94
 306 014e 0C21     		movs	r1, #12
 307 0150 2046     		mov	r0, r4
 308 0152 FFF7FEFF 		bl	HAL_TIM_IC_Start_IT
 309              	.LVL17:
 183:USER/BSP/Src/bsp_TIMIN.c **** 		 		break;    
 310              		.loc 1 183 5 view .LVU95
 183:USER/BSP/Src/bsp_TIMIN.c **** 		 		break;    
 311              		.loc 1 183 20 is_stmt 0 view .LVU96
 312 0156 024B     		ldr	r3, .L12
 313 0158 0022     		movs	r2, #0
 314 015a DA60     		str	r2, [r3, #12]
 184:USER/BSP/Src/bsp_TIMIN.c **** 				 
 315              		.loc 1 184 6 is_stmt 1 view .LVU97
 316              		.loc 1 192 1 is_stmt 0 view .LVU98
 317 015c 62E7     		b	.L1
 318              	.L13:
 319 015e 00BF     		.align	2
 320              	.L12:
 321 0160 00000000 		.word	capture_Cnt
 322 0164 00000000 		.word	htim1
 323 0168 00000000 		.word	capture_Buf
 324 016c 00000000 		.word	high_time
 325              		.cfi_endproc
 326              	.LFE133:
 328              		.text
 329              	.Letext0:
 330              		.file 2 "/Applications/ARM/arm-none-eabi/include/machine/_default_types.h"
 331              		.file 3 "/Applications/ARM/arm-none-eabi/include/sys/_stdint.h"
 332              		.file 4 "Drivers/CMSIS/Include/core_cm4.h"
 333              		.file 5 "Drivers/CMSIS/Device/ST/STM32F4xx/Include/system_stm32f4xx.h"
 334              		.file 6 "Drivers/CMSIS/Device/ST/STM32F4xx/Include/stm32f407xx.h"
 335              		.file 7 "Drivers/STM32F4xx_HAL_Driver/Inc/stm32f4xx_hal_def.h"
 336              		.file 8 "Drivers/STM32F4xx_HAL_Driver/Inc/stm32f4xx_hal_dma.h"
 337              		.file 9 "Drivers/STM32F4xx_HAL_Driver/Inc/stm32f4xx_hal_tim.h"
 338              		.file 10 "Drivers/STM32F4xx_HAL_Driver/Inc/stm32f4xx_hal.h"
 339              		.file 11 "/Applications/ARM/lib/gcc/arm-none-eabi/9.3.1/include/stddef.h"
 340              		.file 12 "/Applications/ARM/arm-none-eabi/include/sys/_types.h"
 341              		.file 13 "/Applications/ARM/arm-none-eabi/include/sys/reent.h"
 342              		.file 14 "/Applications/ARM/arm-none-eabi/include/sys/lock.h"
ARM GAS  /var/folders/cb/0rfcg7_d4zbdkgdchwlcykcc0000gn/T//ccTg7FJC.s 			page 12


DEFINED SYMBOLS
                            *ABS*:0000000000000000 bsp_TIMIN.c
/var/folders/cb/0rfcg7_d4zbdkgdchwlcykcc0000gn/T//ccTg7FJC.s:18     .text.HAL_TIM_IC_CaptureCallback:0000000000000000 $t
/var/folders/cb/0rfcg7_d4zbdkgdchwlcykcc0000gn/T//ccTg7FJC.s:26     .text.HAL_TIM_IC_CaptureCallback:0000000000000000 HAL_TIM_IC_CaptureCallback
/var/folders/cb/0rfcg7_d4zbdkgdchwlcykcc0000gn/T//ccTg7FJC.s:321    .text.HAL_TIM_IC_CaptureCallback:0000000000000160 $d

UNDEFINED SYMBOLS
HAL_TIM_ReadCapturedValue
HAL_TIM_IC_Stop_IT
HAL_TIM_IC_Start_IT
capture_Cnt
htim1
capture_Buf
high_time
