ARM GAS  /var/folders/cb/0rfcg7_d4zbdkgdchwlcykcc0000gn/T//cc0laMba.s 			page 1


   1              		.cpu cortex-m4
   2              		.eabi_attribute 27, 1
   3              		.eabi_attribute 28, 1
   4              		.eabi_attribute 20, 1
   5              		.eabi_attribute 21, 1
   6              		.eabi_attribute 23, 3
   7              		.eabi_attribute 24, 1
   8              		.eabi_attribute 25, 1
   9              		.eabi_attribute 26, 1
  10              		.eabi_attribute 30, 1
  11              		.eabi_attribute 34, 1
  12              		.eabi_attribute 18, 4
  13              		.file	"main.c"
  14              		.text
  15              	.Ltext0:
  16              		.cfi_sections	.debug_frame
  17              		.section	.text.MX_GPIO_Init,"ax",%progbits
  18              		.align	1
  19              		.arch armv7e-m
  20              		.syntax unified
  21              		.thumb
  22              		.thumb_func
  23              		.fpu fpv4-sp-d16
  25              	MX_GPIO_Init:
  26              	.LFB138:
  27              		.file 1 "Core/Src/main.c"
   1:Core/Src/main.c **** /* USER CODE BEGIN Header */
   2:Core/Src/main.c **** /**
   3:Core/Src/main.c ****   ******************************************************************************
   4:Core/Src/main.c ****   * @file           : main.c
   5:Core/Src/main.c ****   * @brief          : Main program body
   6:Core/Src/main.c ****   ******************************************************************************
   7:Core/Src/main.c ****   * @attention
   8:Core/Src/main.c ****   *
   9:Core/Src/main.c ****   * <h2><center>&copy; Copyright (c) 2020 STMicroelectronics.
  10:Core/Src/main.c ****   * All rights reserved.</center></h2>
  11:Core/Src/main.c ****   *
  12:Core/Src/main.c ****   * This software component is licensed by ST under BSD 3-Clause license,
  13:Core/Src/main.c ****   * the "License"; You may not use this file except in compliance with the
  14:Core/Src/main.c ****   * License. You may obtain a copy of the License at:
  15:Core/Src/main.c ****   *                        opensource.org/licenses/BSD-3-Clause
  16:Core/Src/main.c ****   *
  17:Core/Src/main.c ****   ******************************************************************************
  18:Core/Src/main.c ****   */
  19:Core/Src/main.c **** /* USER CODE END Header */
  20:Core/Src/main.c **** /* Includes ------------------------------------------------------------------*/
  21:Core/Src/main.c **** #include "main.h"
  22:Core/Src/main.c **** 
  23:Core/Src/main.c **** /* Private includes ----------------------------------------------------------*/
  24:Core/Src/main.c **** /* USER CODE BEGIN Includes */
  25:Core/Src/main.c **** 
  26:Core/Src/main.c **** /* USER CODE END Includes */
  27:Core/Src/main.c **** 
  28:Core/Src/main.c **** /* Private typedef -----------------------------------------------------------*/
  29:Core/Src/main.c **** /* USER CODE BEGIN PTD */
  30:Core/Src/main.c **** 
  31:Core/Src/main.c **** /* USER CODE END PTD */
ARM GAS  /var/folders/cb/0rfcg7_d4zbdkgdchwlcykcc0000gn/T//cc0laMba.s 			page 2


  32:Core/Src/main.c **** 
  33:Core/Src/main.c **** /* Private define ------------------------------------------------------------*/
  34:Core/Src/main.c **** /* USER CODE BEGIN PD */
  35:Core/Src/main.c **** /* USER CODE END PD */
  36:Core/Src/main.c **** 
  37:Core/Src/main.c **** /* Private macro -------------------------------------------------------------*/
  38:Core/Src/main.c **** /* USER CODE BEGIN PM */
  39:Core/Src/main.c **** 
  40:Core/Src/main.c **** /* USER CODE END PM */
  41:Core/Src/main.c **** 
  42:Core/Src/main.c **** /* Private variables ---------------------------------------------------------*/
  43:Core/Src/main.c **** I2C_HandleTypeDef hi2c1;
  44:Core/Src/main.c **** I2C_HandleTypeDef hi2c2;
  45:Core/Src/main.c **** 
  46:Core/Src/main.c **** TIM_HandleTypeDef htim1;
  47:Core/Src/main.c **** TIM_HandleTypeDef htim8;
  48:Core/Src/main.c **** 
  49:Core/Src/main.c **** UART_HandleTypeDef huart2;
  50:Core/Src/main.c **** UART_HandleTypeDef huart3;
  51:Core/Src/main.c **** 
  52:Core/Src/main.c **** /* USER CODE BEGIN PV */
  53:Core/Src/main.c **** 
  54:Core/Src/main.c **** /* USER CODE END PV */
  55:Core/Src/main.c **** 
  56:Core/Src/main.c **** /* Private function prototypes -----------------------------------------------*/
  57:Core/Src/main.c **** void SystemClock_Config(void);
  58:Core/Src/main.c **** static void MX_GPIO_Init(void);
  59:Core/Src/main.c **** static void MX_I2C1_Init(void);
  60:Core/Src/main.c **** static void MX_I2C2_Init(void);
  61:Core/Src/main.c **** static void MX_TIM1_Init(void);
  62:Core/Src/main.c **** static void MX_TIM8_Init(void);
  63:Core/Src/main.c **** static void MX_USART2_UART_Init(void);
  64:Core/Src/main.c **** static void MX_USART3_UART_Init(void);
  65:Core/Src/main.c **** extern void bsp_OLED_Init(void);
  66:Core/Src/main.c **** extern void bsp_OLED_ON(void);
  67:Core/Src/main.c **** extern void bsp_OLED_CLR(void);
  68:Core/Src/main.c **** extern void bsp_OLED_ShowStr(unsigned char x, unsigned char y, unsigned char *ch, unsigned char Tex
  69:Core/Src/main.c **** /* USER CODE BEGIN PFP */
  70:Core/Src/main.c **** 
  71:Core/Src/main.c **** /* USER CODE END PFP */
  72:Core/Src/main.c **** 
  73:Core/Src/main.c **** /* Private user code ---------------------------------------------------------*/
  74:Core/Src/main.c **** /* USER CODE BEGIN 0 */
  75:Core/Src/main.c **** 
  76:Core/Src/main.c **** /* USER CODE END 0 */
  77:Core/Src/main.c **** 
  78:Core/Src/main.c **** /**
  79:Core/Src/main.c ****   * @brief  The application entry point.
  80:Core/Src/main.c ****   * @retval int
  81:Core/Src/main.c ****   */
  82:Core/Src/main.c **** int main(void)
  83:Core/Src/main.c **** {
  84:Core/Src/main.c ****   /* USER CODE BEGIN 1 */
  85:Core/Src/main.c **** 
  86:Core/Src/main.c ****   /* USER CODE END 1 */
  87:Core/Src/main.c **** 
  88:Core/Src/main.c ****   /* MCU Configuration--------------------------------------------------------*/
ARM GAS  /var/folders/cb/0rfcg7_d4zbdkgdchwlcykcc0000gn/T//cc0laMba.s 			page 3


  89:Core/Src/main.c **** 
  90:Core/Src/main.c ****   /* Reset of all peripherals, Initializes the Flash interface and the Systick. */
  91:Core/Src/main.c ****   HAL_Init();
  92:Core/Src/main.c **** 
  93:Core/Src/main.c ****   /* USER CODE BEGIN Init */
  94:Core/Src/main.c **** 
  95:Core/Src/main.c ****   /* USER CODE END Init */
  96:Core/Src/main.c **** 
  97:Core/Src/main.c ****   /* Configure the system clock */
  98:Core/Src/main.c ****   SystemClock_Config();
  99:Core/Src/main.c **** 
 100:Core/Src/main.c ****   /* USER CODE BEGIN SysInit */
 101:Core/Src/main.c **** 
 102:Core/Src/main.c ****   /* USER CODE END SysInit */
 103:Core/Src/main.c **** 
 104:Core/Src/main.c ****   /* Initialize all configured peripherals */
 105:Core/Src/main.c ****   MX_GPIO_Init();
 106:Core/Src/main.c ****   MX_I2C1_Init();
 107:Core/Src/main.c ****   MX_I2C2_Init();
 108:Core/Src/main.c ****   MX_TIM1_Init();
 109:Core/Src/main.c ****   MX_TIM8_Init();
 110:Core/Src/main.c ****   MX_USART2_UART_Init();
 111:Core/Src/main.c ****   MX_USART3_UART_Init();
 112:Core/Src/main.c ****   /* USER CODE BEGIN 2 */
 113:Core/Src/main.c ****   bsp_OLED_Init();
 114:Core/Src/main.c ****   bsp_OLED_ON();
 115:Core/Src/main.c ****   bsp_OLED_CLR();
 116:Core/Src/main.c ****   unsigned int i =1;
 117:Core/Src/main.c ****   unsigned char buf[50];
 118:Core/Src/main.c ****   /* USER CODE END 2 */
 119:Core/Src/main.c **** 
 120:Core/Src/main.c ****   /* Infinite loop */
 121:Core/Src/main.c ****   /* USER CODE BEGIN WHILE */
 122:Core/Src/main.c ****   while (1)
 123:Core/Src/main.c ****   {
 124:Core/Src/main.c ****     /* USER CODE END WHILE */
 125:Core/Src/main.c ****     sprintf((char*)buf,"show num:%d",i);
 126:Core/Src/main.c ****     i++;
 127:Core/Src/main.c **** 	  bsp_OLED_ShowStr(0,0,(unsigned char*)buf,1);//显示字符串
 128:Core/Src/main.c ****     bsp_OLED_ShowStr(0,1,(unsigned char*)buf,1);//显示字符串
 129:Core/Src/main.c ****     bsp_OLED_ShowStr(0,2,(unsigned char*)buf,1);//显示字符串
 130:Core/Src/main.c ****     bsp_OLED_ShowStr(0,3,(unsigned char*)buf,1);//显示字符串
 131:Core/Src/main.c ****     bsp_OLED_ShowStr(0,4,(unsigned char*)buf,1);//显示字符串
 132:Core/Src/main.c ****     bsp_OLED_ShowStr(0,5,(unsigned char*)buf,1);//显示字符串
 133:Core/Src/main.c ****     bsp_OLED_ShowStr(0,6,(unsigned char*)buf,1);//显示字符串
 134:Core/Src/main.c ****     /* USER CODE BEGIN 3 */
 135:Core/Src/main.c ****   }
 136:Core/Src/main.c ****   /* USER CODE END 3 */
 137:Core/Src/main.c **** }
 138:Core/Src/main.c **** 
 139:Core/Src/main.c **** 
 140:Core/Src/main.c **** 
 141:Core/Src/main.c **** 
 142:Core/Src/main.c **** 
 143:Core/Src/main.c **** 
 144:Core/Src/main.c **** 
 145:Core/Src/main.c **** 
ARM GAS  /var/folders/cb/0rfcg7_d4zbdkgdchwlcykcc0000gn/T//cc0laMba.s 			page 4


 146:Core/Src/main.c **** 
 147:Core/Src/main.c **** 
 148:Core/Src/main.c **** 
 149:Core/Src/main.c **** 
 150:Core/Src/main.c **** 
 151:Core/Src/main.c **** 
 152:Core/Src/main.c **** 
 153:Core/Src/main.c **** 
 154:Core/Src/main.c **** 
 155:Core/Src/main.c **** 
 156:Core/Src/main.c **** 
 157:Core/Src/main.c **** 
 158:Core/Src/main.c **** 
 159:Core/Src/main.c **** 
 160:Core/Src/main.c **** 
 161:Core/Src/main.c **** 
 162:Core/Src/main.c **** 
 163:Core/Src/main.c **** 
 164:Core/Src/main.c **** /**
 165:Core/Src/main.c ****   * @brief System Clock Configuration
 166:Core/Src/main.c ****   * @retval None
 167:Core/Src/main.c ****   */
 168:Core/Src/main.c **** void SystemClock_Config(void)
 169:Core/Src/main.c **** {
 170:Core/Src/main.c ****   RCC_OscInitTypeDef RCC_OscInitStruct = {0};
 171:Core/Src/main.c ****   RCC_ClkInitTypeDef RCC_ClkInitStruct = {0};
 172:Core/Src/main.c **** 
 173:Core/Src/main.c ****   /** Configure the main internal regulator output voltage
 174:Core/Src/main.c ****   */
 175:Core/Src/main.c ****   __HAL_RCC_PWR_CLK_ENABLE();
 176:Core/Src/main.c ****   __HAL_PWR_VOLTAGESCALING_CONFIG(PWR_REGULATOR_VOLTAGE_SCALE1);
 177:Core/Src/main.c ****   /** Initializes the RCC Oscillators according to the specified parameters
 178:Core/Src/main.c ****   * in the RCC_OscInitTypeDef structure.
 179:Core/Src/main.c ****   */
 180:Core/Src/main.c ****   RCC_OscInitStruct.OscillatorType = RCC_OSCILLATORTYPE_HSE;
 181:Core/Src/main.c ****   RCC_OscInitStruct.HSEState = RCC_HSE_ON;
 182:Core/Src/main.c ****   RCC_OscInitStruct.PLL.PLLState = RCC_PLL_ON;
 183:Core/Src/main.c ****   RCC_OscInitStruct.PLL.PLLSource = RCC_PLLSOURCE_HSE;
 184:Core/Src/main.c ****   RCC_OscInitStruct.PLL.PLLM = 4;
 185:Core/Src/main.c ****   RCC_OscInitStruct.PLL.PLLN = 168;
 186:Core/Src/main.c ****   RCC_OscInitStruct.PLL.PLLP = RCC_PLLP_DIV2;
 187:Core/Src/main.c ****   RCC_OscInitStruct.PLL.PLLQ = 4;
 188:Core/Src/main.c ****   if (HAL_RCC_OscConfig(&RCC_OscInitStruct) != HAL_OK)
 189:Core/Src/main.c ****   {
 190:Core/Src/main.c ****     Error_Handler();
 191:Core/Src/main.c ****   }
 192:Core/Src/main.c ****   /** Initializes the CPU, AHB and APB buses clocks
 193:Core/Src/main.c ****   */
 194:Core/Src/main.c ****   RCC_ClkInitStruct.ClockType = RCC_CLOCKTYPE_HCLK|RCC_CLOCKTYPE_SYSCLK
 195:Core/Src/main.c ****                               |RCC_CLOCKTYPE_PCLK1|RCC_CLOCKTYPE_PCLK2;
 196:Core/Src/main.c ****   RCC_ClkInitStruct.SYSCLKSource = RCC_SYSCLKSOURCE_PLLCLK;
 197:Core/Src/main.c ****   RCC_ClkInitStruct.AHBCLKDivider = RCC_SYSCLK_DIV1;
 198:Core/Src/main.c ****   RCC_ClkInitStruct.APB1CLKDivider = RCC_HCLK_DIV4;
 199:Core/Src/main.c ****   RCC_ClkInitStruct.APB2CLKDivider = RCC_HCLK_DIV2;
 200:Core/Src/main.c **** 
 201:Core/Src/main.c ****   if (HAL_RCC_ClockConfig(&RCC_ClkInitStruct, FLASH_LATENCY_5) != HAL_OK)
 202:Core/Src/main.c ****   {
ARM GAS  /var/folders/cb/0rfcg7_d4zbdkgdchwlcykcc0000gn/T//cc0laMba.s 			page 5


 203:Core/Src/main.c ****     Error_Handler();
 204:Core/Src/main.c ****   }
 205:Core/Src/main.c **** }
 206:Core/Src/main.c **** 
 207:Core/Src/main.c **** /**
 208:Core/Src/main.c ****   * @brief I2C1 Initialization Function
 209:Core/Src/main.c ****   * @param None
 210:Core/Src/main.c ****   * @retval None
 211:Core/Src/main.c ****   */
 212:Core/Src/main.c **** static void MX_I2C1_Init(void)
 213:Core/Src/main.c **** {
 214:Core/Src/main.c **** 
 215:Core/Src/main.c ****   /* USER CODE BEGIN I2C1_Init 0 */
 216:Core/Src/main.c **** 
 217:Core/Src/main.c ****   /* USER CODE END I2C1_Init 0 */
 218:Core/Src/main.c **** 
 219:Core/Src/main.c ****   /* USER CODE BEGIN I2C1_Init 1 */
 220:Core/Src/main.c **** 
 221:Core/Src/main.c ****   /* USER CODE END I2C1_Init 1 */
 222:Core/Src/main.c ****   hi2c1.Instance = I2C1;
 223:Core/Src/main.c ****   hi2c1.Init.ClockSpeed = 100000;
 224:Core/Src/main.c ****   hi2c1.Init.DutyCycle = I2C_DUTYCYCLE_2;
 225:Core/Src/main.c ****   hi2c1.Init.OwnAddress1 = 0;
 226:Core/Src/main.c ****   hi2c1.Init.AddressingMode = I2C_ADDRESSINGMODE_7BIT;
 227:Core/Src/main.c ****   hi2c1.Init.DualAddressMode = I2C_DUALADDRESS_DISABLE;
 228:Core/Src/main.c ****   hi2c1.Init.OwnAddress2 = 0;
 229:Core/Src/main.c ****   hi2c1.Init.GeneralCallMode = I2C_GENERALCALL_DISABLE;
 230:Core/Src/main.c ****   hi2c1.Init.NoStretchMode = I2C_NOSTRETCH_DISABLE;
 231:Core/Src/main.c ****   if (HAL_I2C_Init(&hi2c1) != HAL_OK)
 232:Core/Src/main.c ****   {
 233:Core/Src/main.c ****     Error_Handler();
 234:Core/Src/main.c ****   }
 235:Core/Src/main.c ****   /* USER CODE BEGIN I2C1_Init 2 */
 236:Core/Src/main.c **** 
 237:Core/Src/main.c ****   /* USER CODE END I2C1_Init 2 */
 238:Core/Src/main.c **** 
 239:Core/Src/main.c **** }
 240:Core/Src/main.c **** 
 241:Core/Src/main.c **** /**
 242:Core/Src/main.c ****   * @brief I2C2 Initialization Function
 243:Core/Src/main.c ****   * @param None
 244:Core/Src/main.c ****   * @retval None
 245:Core/Src/main.c ****   */
 246:Core/Src/main.c **** static void MX_I2C2_Init(void)
 247:Core/Src/main.c **** {
 248:Core/Src/main.c **** 
 249:Core/Src/main.c ****   /* USER CODE BEGIN I2C2_Init 0 */
 250:Core/Src/main.c **** 
 251:Core/Src/main.c ****   /* USER CODE END I2C2_Init 0 */
 252:Core/Src/main.c **** 
 253:Core/Src/main.c ****   /* USER CODE BEGIN I2C2_Init 1 */
 254:Core/Src/main.c **** 
 255:Core/Src/main.c ****   /* USER CODE END I2C2_Init 1 */
 256:Core/Src/main.c ****   hi2c2.Instance = I2C2;
 257:Core/Src/main.c ****   hi2c2.Init.ClockSpeed = 100000;
 258:Core/Src/main.c ****   hi2c2.Init.DutyCycle = I2C_DUTYCYCLE_2;
 259:Core/Src/main.c ****   hi2c2.Init.OwnAddress1 = 0;
ARM GAS  /var/folders/cb/0rfcg7_d4zbdkgdchwlcykcc0000gn/T//cc0laMba.s 			page 6


 260:Core/Src/main.c ****   hi2c2.Init.AddressingMode = I2C_ADDRESSINGMODE_7BIT;
 261:Core/Src/main.c ****   hi2c2.Init.DualAddressMode = I2C_DUALADDRESS_DISABLE;
 262:Core/Src/main.c ****   hi2c2.Init.OwnAddress2 = 0;
 263:Core/Src/main.c ****   hi2c2.Init.GeneralCallMode = I2C_GENERALCALL_DISABLE;
 264:Core/Src/main.c ****   hi2c2.Init.NoStretchMode = I2C_NOSTRETCH_DISABLE;
 265:Core/Src/main.c ****   if (HAL_I2C_Init(&hi2c2) != HAL_OK)
 266:Core/Src/main.c ****   {
 267:Core/Src/main.c ****     Error_Handler();
 268:Core/Src/main.c ****   }
 269:Core/Src/main.c ****   /* USER CODE BEGIN I2C2_Init 2 */
 270:Core/Src/main.c **** 
 271:Core/Src/main.c ****   /* USER CODE END I2C2_Init 2 */
 272:Core/Src/main.c **** 
 273:Core/Src/main.c **** }
 274:Core/Src/main.c **** 
 275:Core/Src/main.c **** /**
 276:Core/Src/main.c ****   * @brief TIM1 Initialization Function
 277:Core/Src/main.c ****   * @param None
 278:Core/Src/main.c ****   * @retval None
 279:Core/Src/main.c ****   */
 280:Core/Src/main.c **** static void MX_TIM1_Init(void)
 281:Core/Src/main.c **** {
 282:Core/Src/main.c **** 
 283:Core/Src/main.c ****   /* USER CODE BEGIN TIM1_Init 0 */
 284:Core/Src/main.c **** 
 285:Core/Src/main.c ****   /* USER CODE END TIM1_Init 0 */
 286:Core/Src/main.c **** 
 287:Core/Src/main.c ****   TIM_MasterConfigTypeDef sMasterConfig = {0};
 288:Core/Src/main.c ****   TIM_IC_InitTypeDef sConfigIC = {0};
 289:Core/Src/main.c **** 
 290:Core/Src/main.c ****   /* USER CODE BEGIN TIM1_Init 1 */
 291:Core/Src/main.c **** 
 292:Core/Src/main.c ****   /* USER CODE END TIM1_Init 1 */
 293:Core/Src/main.c ****   htim1.Instance = TIM1;
 294:Core/Src/main.c ****   htim1.Init.Prescaler = 83;
 295:Core/Src/main.c ****   htim1.Init.CounterMode = TIM_COUNTERMODE_UP;
 296:Core/Src/main.c ****   htim1.Init.Period = 2500;
 297:Core/Src/main.c ****   htim1.Init.ClockDivision = TIM_CLOCKDIVISION_DIV1;
 298:Core/Src/main.c ****   htim1.Init.RepetitionCounter = 0;
 299:Core/Src/main.c ****   htim1.Init.AutoReloadPreload = TIM_AUTORELOAD_PRELOAD_ENABLE;
 300:Core/Src/main.c ****   if (HAL_TIM_IC_Init(&htim1) != HAL_OK)
 301:Core/Src/main.c ****   {
 302:Core/Src/main.c ****     Error_Handler();
 303:Core/Src/main.c ****   }
 304:Core/Src/main.c ****   sMasterConfig.MasterOutputTrigger = TIM_TRGO_RESET;
 305:Core/Src/main.c ****   sMasterConfig.MasterSlaveMode = TIM_MASTERSLAVEMODE_DISABLE;
 306:Core/Src/main.c ****   if (HAL_TIMEx_MasterConfigSynchronization(&htim1, &sMasterConfig) != HAL_OK)
 307:Core/Src/main.c ****   {
 308:Core/Src/main.c ****     Error_Handler();
 309:Core/Src/main.c ****   }
 310:Core/Src/main.c ****   sConfigIC.ICPolarity = TIM_INPUTCHANNELPOLARITY_RISING;
 311:Core/Src/main.c ****   sConfigIC.ICSelection = TIM_ICSELECTION_DIRECTTI;
 312:Core/Src/main.c ****   sConfigIC.ICPrescaler = TIM_ICPSC_DIV1;
 313:Core/Src/main.c ****   sConfigIC.ICFilter = 8;
 314:Core/Src/main.c ****   if (HAL_TIM_IC_ConfigChannel(&htim1, &sConfigIC, TIM_CHANNEL_1) != HAL_OK)
 315:Core/Src/main.c ****   {
 316:Core/Src/main.c ****     Error_Handler();
ARM GAS  /var/folders/cb/0rfcg7_d4zbdkgdchwlcykcc0000gn/T//cc0laMba.s 			page 7


 317:Core/Src/main.c ****   }
 318:Core/Src/main.c ****   if (HAL_TIM_IC_ConfigChannel(&htim1, &sConfigIC, TIM_CHANNEL_2) != HAL_OK)
 319:Core/Src/main.c ****   {
 320:Core/Src/main.c ****     Error_Handler();
 321:Core/Src/main.c ****   }
 322:Core/Src/main.c ****   if (HAL_TIM_IC_ConfigChannel(&htim1, &sConfigIC, TIM_CHANNEL_3) != HAL_OK)
 323:Core/Src/main.c ****   {
 324:Core/Src/main.c ****     Error_Handler();
 325:Core/Src/main.c ****   }
 326:Core/Src/main.c ****   if (HAL_TIM_IC_ConfigChannel(&htim1, &sConfigIC, TIM_CHANNEL_4) != HAL_OK)
 327:Core/Src/main.c ****   {
 328:Core/Src/main.c ****     Error_Handler();
 329:Core/Src/main.c ****   }
 330:Core/Src/main.c ****   /* USER CODE BEGIN TIM1_Init 2 */
 331:Core/Src/main.c **** 
 332:Core/Src/main.c ****   /* USER CODE END TIM1_Init 2 */
 333:Core/Src/main.c **** 
 334:Core/Src/main.c **** }
 335:Core/Src/main.c **** 
 336:Core/Src/main.c **** /**
 337:Core/Src/main.c ****   * @brief TIM8 Initialization Function
 338:Core/Src/main.c ****   * @param None
 339:Core/Src/main.c ****   * @retval None
 340:Core/Src/main.c ****   */
 341:Core/Src/main.c **** static void MX_TIM8_Init(void)
 342:Core/Src/main.c **** {
 343:Core/Src/main.c **** 
 344:Core/Src/main.c ****   /* USER CODE BEGIN TIM8_Init 0 */
 345:Core/Src/main.c **** 
 346:Core/Src/main.c ****   /* USER CODE END TIM8_Init 0 */
 347:Core/Src/main.c **** 
 348:Core/Src/main.c ****   TIM_MasterConfigTypeDef sMasterConfig = {0};
 349:Core/Src/main.c ****   TIM_OC_InitTypeDef sConfigOC = {0};
 350:Core/Src/main.c ****   TIM_BreakDeadTimeConfigTypeDef sBreakDeadTimeConfig = {0};
 351:Core/Src/main.c **** 
 352:Core/Src/main.c ****   /* USER CODE BEGIN TIM8_Init 1 */
 353:Core/Src/main.c **** 
 354:Core/Src/main.c ****   /* USER CODE END TIM8_Init 1 */
 355:Core/Src/main.c ****   htim8.Instance = TIM8;
 356:Core/Src/main.c ****   htim8.Init.Prescaler = 83;
 357:Core/Src/main.c ****   htim8.Init.CounterMode = TIM_COUNTERMODE_UP;
 358:Core/Src/main.c ****   htim8.Init.Period = 2500;
 359:Core/Src/main.c ****   htim8.Init.ClockDivision = TIM_CLOCKDIVISION_DIV1;
 360:Core/Src/main.c ****   htim8.Init.RepetitionCounter = 0;
 361:Core/Src/main.c ****   htim8.Init.AutoReloadPreload = TIM_AUTORELOAD_PRELOAD_DISABLE;
 362:Core/Src/main.c ****   if (HAL_TIM_PWM_Init(&htim8) != HAL_OK)
 363:Core/Src/main.c ****   {
 364:Core/Src/main.c ****     Error_Handler();
 365:Core/Src/main.c ****   }
 366:Core/Src/main.c ****   sMasterConfig.MasterOutputTrigger = TIM_TRGO_RESET;
 367:Core/Src/main.c ****   sMasterConfig.MasterSlaveMode = TIM_MASTERSLAVEMODE_DISABLE;
 368:Core/Src/main.c ****   if (HAL_TIMEx_MasterConfigSynchronization(&htim8, &sMasterConfig) != HAL_OK)
 369:Core/Src/main.c ****   {
 370:Core/Src/main.c ****     Error_Handler();
 371:Core/Src/main.c ****   }
 372:Core/Src/main.c ****   sConfigOC.OCMode = TIM_OCMODE_PWM1;
 373:Core/Src/main.c ****   sConfigOC.Pulse = 0;
ARM GAS  /var/folders/cb/0rfcg7_d4zbdkgdchwlcykcc0000gn/T//cc0laMba.s 			page 8


 374:Core/Src/main.c ****   sConfigOC.OCPolarity = TIM_OCPOLARITY_HIGH;
 375:Core/Src/main.c ****   sConfigOC.OCNPolarity = TIM_OCNPOLARITY_HIGH;
 376:Core/Src/main.c ****   sConfigOC.OCFastMode = TIM_OCFAST_DISABLE;
 377:Core/Src/main.c ****   sConfigOC.OCIdleState = TIM_OCIDLESTATE_RESET;
 378:Core/Src/main.c ****   sConfigOC.OCNIdleState = TIM_OCNIDLESTATE_RESET;
 379:Core/Src/main.c ****   if (HAL_TIM_PWM_ConfigChannel(&htim8, &sConfigOC, TIM_CHANNEL_1) != HAL_OK)
 380:Core/Src/main.c ****   {
 381:Core/Src/main.c ****     Error_Handler();
 382:Core/Src/main.c ****   }
 383:Core/Src/main.c ****   if (HAL_TIM_PWM_ConfigChannel(&htim8, &sConfigOC, TIM_CHANNEL_2) != HAL_OK)
 384:Core/Src/main.c ****   {
 385:Core/Src/main.c ****     Error_Handler();
 386:Core/Src/main.c ****   }
 387:Core/Src/main.c ****   if (HAL_TIM_PWM_ConfigChannel(&htim8, &sConfigOC, TIM_CHANNEL_3) != HAL_OK)
 388:Core/Src/main.c ****   {
 389:Core/Src/main.c ****     Error_Handler();
 390:Core/Src/main.c ****   }
 391:Core/Src/main.c ****   if (HAL_TIM_PWM_ConfigChannel(&htim8, &sConfigOC, TIM_CHANNEL_4) != HAL_OK)
 392:Core/Src/main.c ****   {
 393:Core/Src/main.c ****     Error_Handler();
 394:Core/Src/main.c ****   }
 395:Core/Src/main.c ****   sBreakDeadTimeConfig.OffStateRunMode = TIM_OSSR_DISABLE;
 396:Core/Src/main.c ****   sBreakDeadTimeConfig.OffStateIDLEMode = TIM_OSSI_DISABLE;
 397:Core/Src/main.c ****   sBreakDeadTimeConfig.LockLevel = TIM_LOCKLEVEL_OFF;
 398:Core/Src/main.c ****   sBreakDeadTimeConfig.DeadTime = 0;
 399:Core/Src/main.c ****   sBreakDeadTimeConfig.BreakState = TIM_BREAK_DISABLE;
 400:Core/Src/main.c ****   sBreakDeadTimeConfig.BreakPolarity = TIM_BREAKPOLARITY_HIGH;
 401:Core/Src/main.c ****   sBreakDeadTimeConfig.AutomaticOutput = TIM_AUTOMATICOUTPUT_DISABLE;
 402:Core/Src/main.c ****   if (HAL_TIMEx_ConfigBreakDeadTime(&htim8, &sBreakDeadTimeConfig) != HAL_OK)
 403:Core/Src/main.c ****   {
 404:Core/Src/main.c ****     Error_Handler();
 405:Core/Src/main.c ****   }
 406:Core/Src/main.c ****   /* USER CODE BEGIN TIM8_Init 2 */
 407:Core/Src/main.c **** 
 408:Core/Src/main.c ****   /* USER CODE END TIM8_Init 2 */
 409:Core/Src/main.c ****   HAL_TIM_MspPostInit(&htim8);
 410:Core/Src/main.c **** 
 411:Core/Src/main.c **** }
 412:Core/Src/main.c **** 
 413:Core/Src/main.c **** /**
 414:Core/Src/main.c ****   * @brief USART2 Initialization Function
 415:Core/Src/main.c ****   * @param None
 416:Core/Src/main.c ****   * @retval None
 417:Core/Src/main.c ****   */
 418:Core/Src/main.c **** static void MX_USART2_UART_Init(void)
 419:Core/Src/main.c **** {
 420:Core/Src/main.c **** 
 421:Core/Src/main.c ****   /* USER CODE BEGIN USART2_Init 0 */
 422:Core/Src/main.c **** 
 423:Core/Src/main.c ****   /* USER CODE END USART2_Init 0 */
 424:Core/Src/main.c **** 
 425:Core/Src/main.c ****   /* USER CODE BEGIN USART2_Init 1 */
 426:Core/Src/main.c **** 
 427:Core/Src/main.c ****   /* USER CODE END USART2_Init 1 */
 428:Core/Src/main.c ****   huart2.Instance = USART2;
 429:Core/Src/main.c ****   huart2.Init.BaudRate = 115200;
 430:Core/Src/main.c ****   huart2.Init.WordLength = UART_WORDLENGTH_8B;
ARM GAS  /var/folders/cb/0rfcg7_d4zbdkgdchwlcykcc0000gn/T//cc0laMba.s 			page 9


 431:Core/Src/main.c ****   huart2.Init.StopBits = UART_STOPBITS_1;
 432:Core/Src/main.c ****   huart2.Init.Parity = UART_PARITY_NONE;
 433:Core/Src/main.c ****   huart2.Init.Mode = UART_MODE_TX_RX;
 434:Core/Src/main.c ****   huart2.Init.HwFlowCtl = UART_HWCONTROL_NONE;
 435:Core/Src/main.c ****   huart2.Init.OverSampling = UART_OVERSAMPLING_16;
 436:Core/Src/main.c ****   if (HAL_UART_Init(&huart2) != HAL_OK)
 437:Core/Src/main.c ****   {
 438:Core/Src/main.c ****     Error_Handler();
 439:Core/Src/main.c ****   }
 440:Core/Src/main.c ****   /* USER CODE BEGIN USART2_Init 2 */
 441:Core/Src/main.c **** 
 442:Core/Src/main.c ****   /* USER CODE END USART2_Init 2 */
 443:Core/Src/main.c **** 
 444:Core/Src/main.c **** }
 445:Core/Src/main.c **** 
 446:Core/Src/main.c **** /**
 447:Core/Src/main.c ****   * @brief USART3 Initialization Function
 448:Core/Src/main.c ****   * @param None
 449:Core/Src/main.c ****   * @retval None
 450:Core/Src/main.c ****   */
 451:Core/Src/main.c **** static void MX_USART3_UART_Init(void)
 452:Core/Src/main.c **** {
 453:Core/Src/main.c **** 
 454:Core/Src/main.c ****   /* USER CODE BEGIN USART3_Init 0 */
 455:Core/Src/main.c **** 
 456:Core/Src/main.c ****   /* USER CODE END USART3_Init 0 */
 457:Core/Src/main.c **** 
 458:Core/Src/main.c ****   /* USER CODE BEGIN USART3_Init 1 */
 459:Core/Src/main.c **** 
 460:Core/Src/main.c ****   /* USER CODE END USART3_Init 1 */
 461:Core/Src/main.c ****   huart3.Instance = USART3;
 462:Core/Src/main.c ****   huart3.Init.BaudRate = 115200;
 463:Core/Src/main.c ****   huart3.Init.WordLength = UART_WORDLENGTH_8B;
 464:Core/Src/main.c ****   huart3.Init.StopBits = UART_STOPBITS_1;
 465:Core/Src/main.c ****   huart3.Init.Parity = UART_PARITY_NONE;
 466:Core/Src/main.c ****   huart3.Init.Mode = UART_MODE_TX_RX;
 467:Core/Src/main.c ****   huart3.Init.HwFlowCtl = UART_HWCONTROL_NONE;
 468:Core/Src/main.c ****   huart3.Init.OverSampling = UART_OVERSAMPLING_16;
 469:Core/Src/main.c ****   if (HAL_UART_Init(&huart3) != HAL_OK)
 470:Core/Src/main.c ****   {
 471:Core/Src/main.c ****     Error_Handler();
 472:Core/Src/main.c ****   }
 473:Core/Src/main.c ****   /* USER CODE BEGIN USART3_Init 2 */
 474:Core/Src/main.c **** 
 475:Core/Src/main.c ****   /* USER CODE END USART3_Init 2 */
 476:Core/Src/main.c **** 
 477:Core/Src/main.c **** }
 478:Core/Src/main.c **** 
 479:Core/Src/main.c **** /**
 480:Core/Src/main.c ****   * @brief GPIO Initialization Function
 481:Core/Src/main.c ****   * @param None
 482:Core/Src/main.c ****   * @retval None
 483:Core/Src/main.c ****   */
 484:Core/Src/main.c **** static void MX_GPIO_Init(void)
 485:Core/Src/main.c **** {
  28              		.loc 1 485 1 view -0
  29              		.cfi_startproc
ARM GAS  /var/folders/cb/0rfcg7_d4zbdkgdchwlcykcc0000gn/T//cc0laMba.s 			page 10


  30              		@ args = 0, pretend = 0, frame = 24
  31              		@ frame_needed = 0, uses_anonymous_args = 0
  32              		@ link register save eliminated.
  33 0000 86B0     		sub	sp, sp, #24
  34              	.LCFI0:
  35              		.cfi_def_cfa_offset 24
 486:Core/Src/main.c **** 
 487:Core/Src/main.c ****   /* GPIO Ports Clock Enable */
 488:Core/Src/main.c ****   __HAL_RCC_GPIOH_CLK_ENABLE();
  36              		.loc 1 488 3 view .LVU1
  37              	.LBB2:
  38              		.loc 1 488 3 view .LVU2
  39 0002 0022     		movs	r2, #0
  40 0004 0092     		str	r2, [sp]
  41              		.loc 1 488 3 view .LVU3
  42 0006 1F4B     		ldr	r3, .L3
  43 0008 196B     		ldr	r1, [r3, #48]
  44 000a 41F08001 		orr	r1, r1, #128
  45 000e 1963     		str	r1, [r3, #48]
  46              		.loc 1 488 3 view .LVU4
  47 0010 196B     		ldr	r1, [r3, #48]
  48 0012 01F08001 		and	r1, r1, #128
  49 0016 0091     		str	r1, [sp]
  50              		.loc 1 488 3 view .LVU5
  51 0018 0099     		ldr	r1, [sp]
  52              	.LBE2:
  53              		.loc 1 488 3 view .LVU6
 489:Core/Src/main.c ****   __HAL_RCC_GPIOA_CLK_ENABLE();
  54              		.loc 1 489 3 view .LVU7
  55              	.LBB3:
  56              		.loc 1 489 3 view .LVU8
  57 001a 0192     		str	r2, [sp, #4]
  58              		.loc 1 489 3 view .LVU9
  59 001c 196B     		ldr	r1, [r3, #48]
  60 001e 41F00101 		orr	r1, r1, #1
  61 0022 1963     		str	r1, [r3, #48]
  62              		.loc 1 489 3 view .LVU10
  63 0024 196B     		ldr	r1, [r3, #48]
  64 0026 01F00101 		and	r1, r1, #1
  65 002a 0191     		str	r1, [sp, #4]
  66              		.loc 1 489 3 view .LVU11
  67 002c 0199     		ldr	r1, [sp, #4]
  68              	.LBE3:
  69              		.loc 1 489 3 view .LVU12
 490:Core/Src/main.c ****   __HAL_RCC_GPIOE_CLK_ENABLE();
  70              		.loc 1 490 3 view .LVU13
  71              	.LBB4:
  72              		.loc 1 490 3 view .LVU14
  73 002e 0292     		str	r2, [sp, #8]
  74              		.loc 1 490 3 view .LVU15
  75 0030 196B     		ldr	r1, [r3, #48]
  76 0032 41F01001 		orr	r1, r1, #16
  77 0036 1963     		str	r1, [r3, #48]
  78              		.loc 1 490 3 view .LVU16
  79 0038 196B     		ldr	r1, [r3, #48]
  80 003a 01F01001 		and	r1, r1, #16
  81 003e 0291     		str	r1, [sp, #8]
ARM GAS  /var/folders/cb/0rfcg7_d4zbdkgdchwlcykcc0000gn/T//cc0laMba.s 			page 11


  82              		.loc 1 490 3 view .LVU17
  83 0040 0299     		ldr	r1, [sp, #8]
  84              	.LBE4:
  85              		.loc 1 490 3 view .LVU18
 491:Core/Src/main.c ****   __HAL_RCC_GPIOB_CLK_ENABLE();
  86              		.loc 1 491 3 view .LVU19
  87              	.LBB5:
  88              		.loc 1 491 3 view .LVU20
  89 0042 0392     		str	r2, [sp, #12]
  90              		.loc 1 491 3 view .LVU21
  91 0044 196B     		ldr	r1, [r3, #48]
  92 0046 41F00201 		orr	r1, r1, #2
  93 004a 1963     		str	r1, [r3, #48]
  94              		.loc 1 491 3 view .LVU22
  95 004c 196B     		ldr	r1, [r3, #48]
  96 004e 01F00201 		and	r1, r1, #2
  97 0052 0391     		str	r1, [sp, #12]
  98              		.loc 1 491 3 view .LVU23
  99 0054 0399     		ldr	r1, [sp, #12]
 100              	.LBE5:
 101              		.loc 1 491 3 view .LVU24
 492:Core/Src/main.c ****   __HAL_RCC_GPIOD_CLK_ENABLE();
 102              		.loc 1 492 3 view .LVU25
 103              	.LBB6:
 104              		.loc 1 492 3 view .LVU26
 105 0056 0492     		str	r2, [sp, #16]
 106              		.loc 1 492 3 view .LVU27
 107 0058 196B     		ldr	r1, [r3, #48]
 108 005a 41F00801 		orr	r1, r1, #8
 109 005e 1963     		str	r1, [r3, #48]
 110              		.loc 1 492 3 view .LVU28
 111 0060 196B     		ldr	r1, [r3, #48]
 112 0062 01F00801 		and	r1, r1, #8
 113 0066 0491     		str	r1, [sp, #16]
 114              		.loc 1 492 3 view .LVU29
 115 0068 0499     		ldr	r1, [sp, #16]
 116              	.LBE6:
 117              		.loc 1 492 3 view .LVU30
 493:Core/Src/main.c ****   __HAL_RCC_GPIOC_CLK_ENABLE();
 118              		.loc 1 493 3 view .LVU31
 119              	.LBB7:
 120              		.loc 1 493 3 view .LVU32
 121 006a 0592     		str	r2, [sp, #20]
 122              		.loc 1 493 3 view .LVU33
 123 006c 1A6B     		ldr	r2, [r3, #48]
 124 006e 42F00402 		orr	r2, r2, #4
 125 0072 1A63     		str	r2, [r3, #48]
 126              		.loc 1 493 3 view .LVU34
 127 0074 1B6B     		ldr	r3, [r3, #48]
 128 0076 03F00403 		and	r3, r3, #4
 129 007a 0593     		str	r3, [sp, #20]
 130              		.loc 1 493 3 view .LVU35
 131 007c 059B     		ldr	r3, [sp, #20]
 132              	.LBE7:
 133              		.loc 1 493 3 view .LVU36
 494:Core/Src/main.c **** 
 495:Core/Src/main.c **** }
ARM GAS  /var/folders/cb/0rfcg7_d4zbdkgdchwlcykcc0000gn/T//cc0laMba.s 			page 12


 134              		.loc 1 495 1 is_stmt 0 view .LVU37
 135 007e 06B0     		add	sp, sp, #24
 136              	.LCFI1:
 137              		.cfi_def_cfa_offset 0
 138              		@ sp needed
 139 0080 7047     		bx	lr
 140              	.L4:
 141 0082 00BF     		.align	2
 142              	.L3:
 143 0084 00380240 		.word	1073887232
 144              		.cfi_endproc
 145              	.LFE138:
 147              		.section	.text.MX_I2C1_Init,"ax",%progbits
 148              		.align	1
 149              		.syntax unified
 150              		.thumb
 151              		.thumb_func
 152              		.fpu fpv4-sp-d16
 154              	MX_I2C1_Init:
 155              	.LFB132:
 213:Core/Src/main.c **** 
 156              		.loc 1 213 1 is_stmt 1 view -0
 157              		.cfi_startproc
 158              		@ args = 0, pretend = 0, frame = 0
 159              		@ frame_needed = 0, uses_anonymous_args = 0
 160 0000 08B5     		push	{r3, lr}
 161              	.LCFI2:
 162              		.cfi_def_cfa_offset 8
 163              		.cfi_offset 3, -8
 164              		.cfi_offset 14, -4
 222:Core/Src/main.c ****   hi2c1.Init.ClockSpeed = 100000;
 165              		.loc 1 222 3 view .LVU39
 222:Core/Src/main.c ****   hi2c1.Init.ClockSpeed = 100000;
 166              		.loc 1 222 18 is_stmt 0 view .LVU40
 167 0002 0948     		ldr	r0, .L7
 168 0004 094B     		ldr	r3, .L7+4
 169 0006 0360     		str	r3, [r0]
 223:Core/Src/main.c ****   hi2c1.Init.DutyCycle = I2C_DUTYCYCLE_2;
 170              		.loc 1 223 3 is_stmt 1 view .LVU41
 223:Core/Src/main.c ****   hi2c1.Init.DutyCycle = I2C_DUTYCYCLE_2;
 171              		.loc 1 223 25 is_stmt 0 view .LVU42
 172 0008 094B     		ldr	r3, .L7+8
 173 000a 4360     		str	r3, [r0, #4]
 224:Core/Src/main.c ****   hi2c1.Init.OwnAddress1 = 0;
 174              		.loc 1 224 3 is_stmt 1 view .LVU43
 224:Core/Src/main.c ****   hi2c1.Init.OwnAddress1 = 0;
 175              		.loc 1 224 24 is_stmt 0 view .LVU44
 176 000c 0023     		movs	r3, #0
 177 000e 8360     		str	r3, [r0, #8]
 225:Core/Src/main.c ****   hi2c1.Init.AddressingMode = I2C_ADDRESSINGMODE_7BIT;
 178              		.loc 1 225 3 is_stmt 1 view .LVU45
 225:Core/Src/main.c ****   hi2c1.Init.AddressingMode = I2C_ADDRESSINGMODE_7BIT;
 179              		.loc 1 225 26 is_stmt 0 view .LVU46
 180 0010 C360     		str	r3, [r0, #12]
 226:Core/Src/main.c ****   hi2c1.Init.DualAddressMode = I2C_DUALADDRESS_DISABLE;
 181              		.loc 1 226 3 is_stmt 1 view .LVU47
 226:Core/Src/main.c ****   hi2c1.Init.DualAddressMode = I2C_DUALADDRESS_DISABLE;
ARM GAS  /var/folders/cb/0rfcg7_d4zbdkgdchwlcykcc0000gn/T//cc0laMba.s 			page 13


 182              		.loc 1 226 29 is_stmt 0 view .LVU48
 183 0012 4FF48042 		mov	r2, #16384
 184 0016 0261     		str	r2, [r0, #16]
 227:Core/Src/main.c ****   hi2c1.Init.OwnAddress2 = 0;
 185              		.loc 1 227 3 is_stmt 1 view .LVU49
 227:Core/Src/main.c ****   hi2c1.Init.OwnAddress2 = 0;
 186              		.loc 1 227 30 is_stmt 0 view .LVU50
 187 0018 4361     		str	r3, [r0, #20]
 228:Core/Src/main.c ****   hi2c1.Init.GeneralCallMode = I2C_GENERALCALL_DISABLE;
 188              		.loc 1 228 3 is_stmt 1 view .LVU51
 228:Core/Src/main.c ****   hi2c1.Init.GeneralCallMode = I2C_GENERALCALL_DISABLE;
 189              		.loc 1 228 26 is_stmt 0 view .LVU52
 190 001a 8361     		str	r3, [r0, #24]
 229:Core/Src/main.c ****   hi2c1.Init.NoStretchMode = I2C_NOSTRETCH_DISABLE;
 191              		.loc 1 229 3 is_stmt 1 view .LVU53
 229:Core/Src/main.c ****   hi2c1.Init.NoStretchMode = I2C_NOSTRETCH_DISABLE;
 192              		.loc 1 229 30 is_stmt 0 view .LVU54
 193 001c C361     		str	r3, [r0, #28]
 230:Core/Src/main.c ****   if (HAL_I2C_Init(&hi2c1) != HAL_OK)
 194              		.loc 1 230 3 is_stmt 1 view .LVU55
 230:Core/Src/main.c ****   if (HAL_I2C_Init(&hi2c1) != HAL_OK)
 195              		.loc 1 230 28 is_stmt 0 view .LVU56
 196 001e 0362     		str	r3, [r0, #32]
 231:Core/Src/main.c ****   {
 197              		.loc 1 231 3 is_stmt 1 view .LVU57
 231:Core/Src/main.c ****   {
 198              		.loc 1 231 7 is_stmt 0 view .LVU58
 199 0020 FFF7FEFF 		bl	HAL_I2C_Init
 200              	.LVL0:
 239:Core/Src/main.c **** 
 201              		.loc 1 239 1 view .LVU59
 202 0024 08BD     		pop	{r3, pc}
 203              	.L8:
 204 0026 00BF     		.align	2
 205              	.L7:
 206 0028 00000000 		.word	hi2c1
 207 002c 00540040 		.word	1073763328
 208 0030 A0860100 		.word	100000
 209              		.cfi_endproc
 210              	.LFE132:
 212              		.section	.text.MX_I2C2_Init,"ax",%progbits
 213              		.align	1
 214              		.syntax unified
 215              		.thumb
 216              		.thumb_func
 217              		.fpu fpv4-sp-d16
 219              	MX_I2C2_Init:
 220              	.LFB133:
 247:Core/Src/main.c **** 
 221              		.loc 1 247 1 is_stmt 1 view -0
 222              		.cfi_startproc
 223              		@ args = 0, pretend = 0, frame = 0
 224              		@ frame_needed = 0, uses_anonymous_args = 0
 225 0000 08B5     		push	{r3, lr}
 226              	.LCFI3:
 227              		.cfi_def_cfa_offset 8
 228              		.cfi_offset 3, -8
ARM GAS  /var/folders/cb/0rfcg7_d4zbdkgdchwlcykcc0000gn/T//cc0laMba.s 			page 14


 229              		.cfi_offset 14, -4
 256:Core/Src/main.c ****   hi2c2.Init.ClockSpeed = 100000;
 230              		.loc 1 256 3 view .LVU61
 256:Core/Src/main.c ****   hi2c2.Init.ClockSpeed = 100000;
 231              		.loc 1 256 18 is_stmt 0 view .LVU62
 232 0002 0948     		ldr	r0, .L11
 233 0004 094B     		ldr	r3, .L11+4
 234 0006 0360     		str	r3, [r0]
 257:Core/Src/main.c ****   hi2c2.Init.DutyCycle = I2C_DUTYCYCLE_2;
 235              		.loc 1 257 3 is_stmt 1 view .LVU63
 257:Core/Src/main.c ****   hi2c2.Init.DutyCycle = I2C_DUTYCYCLE_2;
 236              		.loc 1 257 25 is_stmt 0 view .LVU64
 237 0008 094B     		ldr	r3, .L11+8
 238 000a 4360     		str	r3, [r0, #4]
 258:Core/Src/main.c ****   hi2c2.Init.OwnAddress1 = 0;
 239              		.loc 1 258 3 is_stmt 1 view .LVU65
 258:Core/Src/main.c ****   hi2c2.Init.OwnAddress1 = 0;
 240              		.loc 1 258 24 is_stmt 0 view .LVU66
 241 000c 0023     		movs	r3, #0
 242 000e 8360     		str	r3, [r0, #8]
 259:Core/Src/main.c ****   hi2c2.Init.AddressingMode = I2C_ADDRESSINGMODE_7BIT;
 243              		.loc 1 259 3 is_stmt 1 view .LVU67
 259:Core/Src/main.c ****   hi2c2.Init.AddressingMode = I2C_ADDRESSINGMODE_7BIT;
 244              		.loc 1 259 26 is_stmt 0 view .LVU68
 245 0010 C360     		str	r3, [r0, #12]
 260:Core/Src/main.c ****   hi2c2.Init.DualAddressMode = I2C_DUALADDRESS_DISABLE;
 246              		.loc 1 260 3 is_stmt 1 view .LVU69
 260:Core/Src/main.c ****   hi2c2.Init.DualAddressMode = I2C_DUALADDRESS_DISABLE;
 247              		.loc 1 260 29 is_stmt 0 view .LVU70
 248 0012 4FF48042 		mov	r2, #16384
 249 0016 0261     		str	r2, [r0, #16]
 261:Core/Src/main.c ****   hi2c2.Init.OwnAddress2 = 0;
 250              		.loc 1 261 3 is_stmt 1 view .LVU71
 261:Core/Src/main.c ****   hi2c2.Init.OwnAddress2 = 0;
 251              		.loc 1 261 30 is_stmt 0 view .LVU72
 252 0018 4361     		str	r3, [r0, #20]
 262:Core/Src/main.c ****   hi2c2.Init.GeneralCallMode = I2C_GENERALCALL_DISABLE;
 253              		.loc 1 262 3 is_stmt 1 view .LVU73
 262:Core/Src/main.c ****   hi2c2.Init.GeneralCallMode = I2C_GENERALCALL_DISABLE;
 254              		.loc 1 262 26 is_stmt 0 view .LVU74
 255 001a 8361     		str	r3, [r0, #24]
 263:Core/Src/main.c ****   hi2c2.Init.NoStretchMode = I2C_NOSTRETCH_DISABLE;
 256              		.loc 1 263 3 is_stmt 1 view .LVU75
 263:Core/Src/main.c ****   hi2c2.Init.NoStretchMode = I2C_NOSTRETCH_DISABLE;
 257              		.loc 1 263 30 is_stmt 0 view .LVU76
 258 001c C361     		str	r3, [r0, #28]
 264:Core/Src/main.c ****   if (HAL_I2C_Init(&hi2c2) != HAL_OK)
 259              		.loc 1 264 3 is_stmt 1 view .LVU77
 264:Core/Src/main.c ****   if (HAL_I2C_Init(&hi2c2) != HAL_OK)
 260              		.loc 1 264 28 is_stmt 0 view .LVU78
 261 001e 0362     		str	r3, [r0, #32]
 265:Core/Src/main.c ****   {
 262              		.loc 1 265 3 is_stmt 1 view .LVU79
 265:Core/Src/main.c ****   {
 263              		.loc 1 265 7 is_stmt 0 view .LVU80
 264 0020 FFF7FEFF 		bl	HAL_I2C_Init
 265              	.LVL1:
ARM GAS  /var/folders/cb/0rfcg7_d4zbdkgdchwlcykcc0000gn/T//cc0laMba.s 			page 15


 273:Core/Src/main.c **** 
 266              		.loc 1 273 1 view .LVU81
 267 0024 08BD     		pop	{r3, pc}
 268              	.L12:
 269 0026 00BF     		.align	2
 270              	.L11:
 271 0028 00000000 		.word	hi2c2
 272 002c 00580040 		.word	1073764352
 273 0030 A0860100 		.word	100000
 274              		.cfi_endproc
 275              	.LFE133:
 277              		.section	.text.MX_TIM1_Init,"ax",%progbits
 278              		.align	1
 279              		.syntax unified
 280              		.thumb
 281              		.thumb_func
 282              		.fpu fpv4-sp-d16
 284              	MX_TIM1_Init:
 285              	.LFB134:
 281:Core/Src/main.c **** 
 286              		.loc 1 281 1 is_stmt 1 view -0
 287              		.cfi_startproc
 288              		@ args = 0, pretend = 0, frame = 24
 289              		@ frame_needed = 0, uses_anonymous_args = 0
 290 0000 70B5     		push	{r4, r5, r6, lr}
 291              	.LCFI4:
 292              		.cfi_def_cfa_offset 16
 293              		.cfi_offset 4, -16
 294              		.cfi_offset 5, -12
 295              		.cfi_offset 6, -8
 296              		.cfi_offset 14, -4
 297 0002 86B0     		sub	sp, sp, #24
 298              	.LCFI5:
 299              		.cfi_def_cfa_offset 40
 287:Core/Src/main.c ****   TIM_IC_InitTypeDef sConfigIC = {0};
 300              		.loc 1 287 3 view .LVU83
 287:Core/Src/main.c ****   TIM_IC_InitTypeDef sConfigIC = {0};
 301              		.loc 1 287 27 is_stmt 0 view .LVU84
 302 0004 0024     		movs	r4, #0
 303 0006 0494     		str	r4, [sp, #16]
 304 0008 0594     		str	r4, [sp, #20]
 288:Core/Src/main.c **** 
 305              		.loc 1 288 3 is_stmt 1 view .LVU85
 288:Core/Src/main.c **** 
 306              		.loc 1 288 22 is_stmt 0 view .LVU86
 307 000a 0094     		str	r4, [sp]
 308 000c 0194     		str	r4, [sp, #4]
 309 000e 0294     		str	r4, [sp, #8]
 310 0010 0394     		str	r4, [sp, #12]
 293:Core/Src/main.c ****   htim1.Init.Prescaler = 83;
 311              		.loc 1 293 3 is_stmt 1 view .LVU87
 293:Core/Src/main.c ****   htim1.Init.Prescaler = 83;
 312              		.loc 1 293 18 is_stmt 0 view .LVU88
 313 0012 194D     		ldr	r5, .L15
 314 0014 194B     		ldr	r3, .L15+4
 315 0016 2B60     		str	r3, [r5]
 294:Core/Src/main.c ****   htim1.Init.CounterMode = TIM_COUNTERMODE_UP;
ARM GAS  /var/folders/cb/0rfcg7_d4zbdkgdchwlcykcc0000gn/T//cc0laMba.s 			page 16


 316              		.loc 1 294 3 is_stmt 1 view .LVU89
 294:Core/Src/main.c ****   htim1.Init.CounterMode = TIM_COUNTERMODE_UP;
 317              		.loc 1 294 24 is_stmt 0 view .LVU90
 318 0018 5323     		movs	r3, #83
 319 001a 6B60     		str	r3, [r5, #4]
 295:Core/Src/main.c ****   htim1.Init.Period = 2500;
 320              		.loc 1 295 3 is_stmt 1 view .LVU91
 295:Core/Src/main.c ****   htim1.Init.Period = 2500;
 321              		.loc 1 295 26 is_stmt 0 view .LVU92
 322 001c AC60     		str	r4, [r5, #8]
 296:Core/Src/main.c ****   htim1.Init.ClockDivision = TIM_CLOCKDIVISION_DIV1;
 323              		.loc 1 296 3 is_stmt 1 view .LVU93
 296:Core/Src/main.c ****   htim1.Init.ClockDivision = TIM_CLOCKDIVISION_DIV1;
 324              		.loc 1 296 21 is_stmt 0 view .LVU94
 325 001e 40F6C413 		movw	r3, #2500
 326 0022 EB60     		str	r3, [r5, #12]
 297:Core/Src/main.c ****   htim1.Init.RepetitionCounter = 0;
 327              		.loc 1 297 3 is_stmt 1 view .LVU95
 297:Core/Src/main.c ****   htim1.Init.RepetitionCounter = 0;
 328              		.loc 1 297 28 is_stmt 0 view .LVU96
 329 0024 2C61     		str	r4, [r5, #16]
 298:Core/Src/main.c ****   htim1.Init.AutoReloadPreload = TIM_AUTORELOAD_PRELOAD_ENABLE;
 330              		.loc 1 298 3 is_stmt 1 view .LVU97
 298:Core/Src/main.c ****   htim1.Init.AutoReloadPreload = TIM_AUTORELOAD_PRELOAD_ENABLE;
 331              		.loc 1 298 32 is_stmt 0 view .LVU98
 332 0026 6C61     		str	r4, [r5, #20]
 299:Core/Src/main.c ****   if (HAL_TIM_IC_Init(&htim1) != HAL_OK)
 333              		.loc 1 299 3 is_stmt 1 view .LVU99
 299:Core/Src/main.c ****   if (HAL_TIM_IC_Init(&htim1) != HAL_OK)
 334              		.loc 1 299 32 is_stmt 0 view .LVU100
 335 0028 8023     		movs	r3, #128
 336 002a AB61     		str	r3, [r5, #24]
 300:Core/Src/main.c ****   {
 337              		.loc 1 300 3 is_stmt 1 view .LVU101
 300:Core/Src/main.c ****   {
 338              		.loc 1 300 7 is_stmt 0 view .LVU102
 339 002c 2846     		mov	r0, r5
 340 002e FFF7FEFF 		bl	HAL_TIM_IC_Init
 341              	.LVL2:
 304:Core/Src/main.c ****   sMasterConfig.MasterSlaveMode = TIM_MASTERSLAVEMODE_DISABLE;
 342              		.loc 1 304 3 is_stmt 1 view .LVU103
 304:Core/Src/main.c ****   sMasterConfig.MasterSlaveMode = TIM_MASTERSLAVEMODE_DISABLE;
 343              		.loc 1 304 37 is_stmt 0 view .LVU104
 344 0032 0494     		str	r4, [sp, #16]
 305:Core/Src/main.c ****   if (HAL_TIMEx_MasterConfigSynchronization(&htim1, &sMasterConfig) != HAL_OK)
 345              		.loc 1 305 3 is_stmt 1 view .LVU105
 305:Core/Src/main.c ****   if (HAL_TIMEx_MasterConfigSynchronization(&htim1, &sMasterConfig) != HAL_OK)
 346              		.loc 1 305 33 is_stmt 0 view .LVU106
 347 0034 0594     		str	r4, [sp, #20]
 306:Core/Src/main.c ****   {
 348              		.loc 1 306 3 is_stmt 1 view .LVU107
 306:Core/Src/main.c ****   {
 349              		.loc 1 306 7 is_stmt 0 view .LVU108
 350 0036 04A9     		add	r1, sp, #16
 351 0038 2846     		mov	r0, r5
 352 003a FFF7FEFF 		bl	HAL_TIMEx_MasterConfigSynchronization
 353              	.LVL3:
ARM GAS  /var/folders/cb/0rfcg7_d4zbdkgdchwlcykcc0000gn/T//cc0laMba.s 			page 17


 310:Core/Src/main.c ****   sConfigIC.ICSelection = TIM_ICSELECTION_DIRECTTI;
 354              		.loc 1 310 3 is_stmt 1 view .LVU109
 310:Core/Src/main.c ****   sConfigIC.ICSelection = TIM_ICSELECTION_DIRECTTI;
 355              		.loc 1 310 24 is_stmt 0 view .LVU110
 356 003e 0094     		str	r4, [sp]
 311:Core/Src/main.c ****   sConfigIC.ICPrescaler = TIM_ICPSC_DIV1;
 357              		.loc 1 311 3 is_stmt 1 view .LVU111
 311:Core/Src/main.c ****   sConfigIC.ICPrescaler = TIM_ICPSC_DIV1;
 358              		.loc 1 311 25 is_stmt 0 view .LVU112
 359 0040 0123     		movs	r3, #1
 360 0042 0193     		str	r3, [sp, #4]
 312:Core/Src/main.c ****   sConfigIC.ICFilter = 8;
 361              		.loc 1 312 3 is_stmt 1 view .LVU113
 312:Core/Src/main.c ****   sConfigIC.ICFilter = 8;
 362              		.loc 1 312 25 is_stmt 0 view .LVU114
 363 0044 0294     		str	r4, [sp, #8]
 313:Core/Src/main.c ****   if (HAL_TIM_IC_ConfigChannel(&htim1, &sConfigIC, TIM_CHANNEL_1) != HAL_OK)
 364              		.loc 1 313 3 is_stmt 1 view .LVU115
 313:Core/Src/main.c ****   if (HAL_TIM_IC_ConfigChannel(&htim1, &sConfigIC, TIM_CHANNEL_1) != HAL_OK)
 365              		.loc 1 313 22 is_stmt 0 view .LVU116
 366 0046 0826     		movs	r6, #8
 367 0048 0396     		str	r6, [sp, #12]
 314:Core/Src/main.c ****   {
 368              		.loc 1 314 3 is_stmt 1 view .LVU117
 314:Core/Src/main.c ****   {
 369              		.loc 1 314 7 is_stmt 0 view .LVU118
 370 004a 2246     		mov	r2, r4
 371 004c 6946     		mov	r1, sp
 372 004e 2846     		mov	r0, r5
 373 0050 FFF7FEFF 		bl	HAL_TIM_IC_ConfigChannel
 374              	.LVL4:
 318:Core/Src/main.c ****   {
 375              		.loc 1 318 3 is_stmt 1 view .LVU119
 318:Core/Src/main.c ****   {
 376              		.loc 1 318 7 is_stmt 0 view .LVU120
 377 0054 0422     		movs	r2, #4
 378 0056 6946     		mov	r1, sp
 379 0058 2846     		mov	r0, r5
 380 005a FFF7FEFF 		bl	HAL_TIM_IC_ConfigChannel
 381              	.LVL5:
 322:Core/Src/main.c ****   {
 382              		.loc 1 322 3 is_stmt 1 view .LVU121
 322:Core/Src/main.c ****   {
 383              		.loc 1 322 7 is_stmt 0 view .LVU122
 384 005e 3246     		mov	r2, r6
 385 0060 6946     		mov	r1, sp
 386 0062 2846     		mov	r0, r5
 387 0064 FFF7FEFF 		bl	HAL_TIM_IC_ConfigChannel
 388              	.LVL6:
 326:Core/Src/main.c ****   {
 389              		.loc 1 326 3 is_stmt 1 view .LVU123
 326:Core/Src/main.c ****   {
 390              		.loc 1 326 7 is_stmt 0 view .LVU124
 391 0068 0C22     		movs	r2, #12
 392 006a 6946     		mov	r1, sp
 393 006c 2846     		mov	r0, r5
 394 006e FFF7FEFF 		bl	HAL_TIM_IC_ConfigChannel
ARM GAS  /var/folders/cb/0rfcg7_d4zbdkgdchwlcykcc0000gn/T//cc0laMba.s 			page 18


 395              	.LVL7:
 334:Core/Src/main.c **** 
 396              		.loc 1 334 1 view .LVU125
 397 0072 06B0     		add	sp, sp, #24
 398              	.LCFI6:
 399              		.cfi_def_cfa_offset 16
 400              		@ sp needed
 401 0074 70BD     		pop	{r4, r5, r6, pc}
 402              	.L16:
 403 0076 00BF     		.align	2
 404              	.L15:
 405 0078 00000000 		.word	htim1
 406 007c 00000140 		.word	1073807360
 407              		.cfi_endproc
 408              	.LFE134:
 410              		.section	.text.MX_TIM8_Init,"ax",%progbits
 411              		.align	1
 412              		.syntax unified
 413              		.thumb
 414              		.thumb_func
 415              		.fpu fpv4-sp-d16
 417              	MX_TIM8_Init:
 418              	.LFB135:
 342:Core/Src/main.c **** 
 419              		.loc 1 342 1 is_stmt 1 view -0
 420              		.cfi_startproc
 421              		@ args = 0, pretend = 0, frame = 72
 422              		@ frame_needed = 0, uses_anonymous_args = 0
 423 0000 30B5     		push	{r4, r5, lr}
 424              	.LCFI7:
 425              		.cfi_def_cfa_offset 12
 426              		.cfi_offset 4, -12
 427              		.cfi_offset 5, -8
 428              		.cfi_offset 14, -4
 429 0002 93B0     		sub	sp, sp, #76
 430              	.LCFI8:
 431              		.cfi_def_cfa_offset 88
 348:Core/Src/main.c ****   TIM_OC_InitTypeDef sConfigOC = {0};
 432              		.loc 1 348 3 view .LVU127
 348:Core/Src/main.c ****   TIM_OC_InitTypeDef sConfigOC = {0};
 433              		.loc 1 348 27 is_stmt 0 view .LVU128
 434 0004 0024     		movs	r4, #0
 435 0006 1094     		str	r4, [sp, #64]
 436 0008 1194     		str	r4, [sp, #68]
 349:Core/Src/main.c ****   TIM_BreakDeadTimeConfigTypeDef sBreakDeadTimeConfig = {0};
 437              		.loc 1 349 3 is_stmt 1 view .LVU129
 349:Core/Src/main.c ****   TIM_BreakDeadTimeConfigTypeDef sBreakDeadTimeConfig = {0};
 438              		.loc 1 349 22 is_stmt 0 view .LVU130
 439 000a 0994     		str	r4, [sp, #36]
 440 000c 0A94     		str	r4, [sp, #40]
 441 000e 0B94     		str	r4, [sp, #44]
 442 0010 0C94     		str	r4, [sp, #48]
 443 0012 0D94     		str	r4, [sp, #52]
 444 0014 0E94     		str	r4, [sp, #56]
 445 0016 0F94     		str	r4, [sp, #60]
 350:Core/Src/main.c **** 
 446              		.loc 1 350 3 is_stmt 1 view .LVU131
ARM GAS  /var/folders/cb/0rfcg7_d4zbdkgdchwlcykcc0000gn/T//cc0laMba.s 			page 19


 350:Core/Src/main.c **** 
 447              		.loc 1 350 34 is_stmt 0 view .LVU132
 448 0018 2022     		movs	r2, #32
 449 001a 2146     		mov	r1, r4
 450 001c 01A8     		add	r0, sp, #4
 451 001e FFF7FEFF 		bl	memset
 452              	.LVL8:
 355:Core/Src/main.c ****   htim8.Init.Prescaler = 83;
 453              		.loc 1 355 3 is_stmt 1 view .LVU133
 355:Core/Src/main.c ****   htim8.Init.Prescaler = 83;
 454              		.loc 1 355 18 is_stmt 0 view .LVU134
 455 0022 214D     		ldr	r5, .L19
 456 0024 214B     		ldr	r3, .L19+4
 457 0026 2B60     		str	r3, [r5]
 356:Core/Src/main.c ****   htim8.Init.CounterMode = TIM_COUNTERMODE_UP;
 458              		.loc 1 356 3 is_stmt 1 view .LVU135
 356:Core/Src/main.c ****   htim8.Init.CounterMode = TIM_COUNTERMODE_UP;
 459              		.loc 1 356 24 is_stmt 0 view .LVU136
 460 0028 5323     		movs	r3, #83
 461 002a 6B60     		str	r3, [r5, #4]
 357:Core/Src/main.c ****   htim8.Init.Period = 2500;
 462              		.loc 1 357 3 is_stmt 1 view .LVU137
 357:Core/Src/main.c ****   htim8.Init.Period = 2500;
 463              		.loc 1 357 26 is_stmt 0 view .LVU138
 464 002c AC60     		str	r4, [r5, #8]
 358:Core/Src/main.c ****   htim8.Init.ClockDivision = TIM_CLOCKDIVISION_DIV1;
 465              		.loc 1 358 3 is_stmt 1 view .LVU139
 358:Core/Src/main.c ****   htim8.Init.ClockDivision = TIM_CLOCKDIVISION_DIV1;
 466              		.loc 1 358 21 is_stmt 0 view .LVU140
 467 002e 40F6C413 		movw	r3, #2500
 468 0032 EB60     		str	r3, [r5, #12]
 359:Core/Src/main.c ****   htim8.Init.RepetitionCounter = 0;
 469              		.loc 1 359 3 is_stmt 1 view .LVU141
 359:Core/Src/main.c ****   htim8.Init.RepetitionCounter = 0;
 470              		.loc 1 359 28 is_stmt 0 view .LVU142
 471 0034 2C61     		str	r4, [r5, #16]
 360:Core/Src/main.c ****   htim8.Init.AutoReloadPreload = TIM_AUTORELOAD_PRELOAD_DISABLE;
 472              		.loc 1 360 3 is_stmt 1 view .LVU143
 360:Core/Src/main.c ****   htim8.Init.AutoReloadPreload = TIM_AUTORELOAD_PRELOAD_DISABLE;
 473              		.loc 1 360 32 is_stmt 0 view .LVU144
 474 0036 6C61     		str	r4, [r5, #20]
 361:Core/Src/main.c ****   if (HAL_TIM_PWM_Init(&htim8) != HAL_OK)
 475              		.loc 1 361 3 is_stmt 1 view .LVU145
 361:Core/Src/main.c ****   if (HAL_TIM_PWM_Init(&htim8) != HAL_OK)
 476              		.loc 1 361 32 is_stmt 0 view .LVU146
 477 0038 AC61     		str	r4, [r5, #24]
 362:Core/Src/main.c ****   {
 478              		.loc 1 362 3 is_stmt 1 view .LVU147
 362:Core/Src/main.c ****   {
 479              		.loc 1 362 7 is_stmt 0 view .LVU148
 480 003a 2846     		mov	r0, r5
 481 003c FFF7FEFF 		bl	HAL_TIM_PWM_Init
 482              	.LVL9:
 366:Core/Src/main.c ****   sMasterConfig.MasterSlaveMode = TIM_MASTERSLAVEMODE_DISABLE;
 483              		.loc 1 366 3 is_stmt 1 view .LVU149
 366:Core/Src/main.c ****   sMasterConfig.MasterSlaveMode = TIM_MASTERSLAVEMODE_DISABLE;
 484              		.loc 1 366 37 is_stmt 0 view .LVU150
ARM GAS  /var/folders/cb/0rfcg7_d4zbdkgdchwlcykcc0000gn/T//cc0laMba.s 			page 20


 485 0040 1094     		str	r4, [sp, #64]
 367:Core/Src/main.c ****   if (HAL_TIMEx_MasterConfigSynchronization(&htim8, &sMasterConfig) != HAL_OK)
 486              		.loc 1 367 3 is_stmt 1 view .LVU151
 367:Core/Src/main.c ****   if (HAL_TIMEx_MasterConfigSynchronization(&htim8, &sMasterConfig) != HAL_OK)
 487              		.loc 1 367 33 is_stmt 0 view .LVU152
 488 0042 1194     		str	r4, [sp, #68]
 368:Core/Src/main.c ****   {
 489              		.loc 1 368 3 is_stmt 1 view .LVU153
 368:Core/Src/main.c ****   {
 490              		.loc 1 368 7 is_stmt 0 view .LVU154
 491 0044 10A9     		add	r1, sp, #64
 492 0046 2846     		mov	r0, r5
 493 0048 FFF7FEFF 		bl	HAL_TIMEx_MasterConfigSynchronization
 494              	.LVL10:
 372:Core/Src/main.c ****   sConfigOC.Pulse = 0;
 495              		.loc 1 372 3 is_stmt 1 view .LVU155
 372:Core/Src/main.c ****   sConfigOC.Pulse = 0;
 496              		.loc 1 372 20 is_stmt 0 view .LVU156
 497 004c 6023     		movs	r3, #96
 498 004e 0993     		str	r3, [sp, #36]
 373:Core/Src/main.c ****   sConfigOC.OCPolarity = TIM_OCPOLARITY_HIGH;
 499              		.loc 1 373 3 is_stmt 1 view .LVU157
 373:Core/Src/main.c ****   sConfigOC.OCPolarity = TIM_OCPOLARITY_HIGH;
 500              		.loc 1 373 19 is_stmt 0 view .LVU158
 501 0050 0A94     		str	r4, [sp, #40]
 374:Core/Src/main.c ****   sConfigOC.OCNPolarity = TIM_OCNPOLARITY_HIGH;
 502              		.loc 1 374 3 is_stmt 1 view .LVU159
 374:Core/Src/main.c ****   sConfigOC.OCNPolarity = TIM_OCNPOLARITY_HIGH;
 503              		.loc 1 374 24 is_stmt 0 view .LVU160
 504 0052 0B94     		str	r4, [sp, #44]
 375:Core/Src/main.c ****   sConfigOC.OCFastMode = TIM_OCFAST_DISABLE;
 505              		.loc 1 375 3 is_stmt 1 view .LVU161
 375:Core/Src/main.c ****   sConfigOC.OCFastMode = TIM_OCFAST_DISABLE;
 506              		.loc 1 375 25 is_stmt 0 view .LVU162
 507 0054 0C94     		str	r4, [sp, #48]
 376:Core/Src/main.c ****   sConfigOC.OCIdleState = TIM_OCIDLESTATE_RESET;
 508              		.loc 1 376 3 is_stmt 1 view .LVU163
 376:Core/Src/main.c ****   sConfigOC.OCIdleState = TIM_OCIDLESTATE_RESET;
 509              		.loc 1 376 24 is_stmt 0 view .LVU164
 510 0056 0D94     		str	r4, [sp, #52]
 377:Core/Src/main.c ****   sConfigOC.OCNIdleState = TIM_OCNIDLESTATE_RESET;
 511              		.loc 1 377 3 is_stmt 1 view .LVU165
 377:Core/Src/main.c ****   sConfigOC.OCNIdleState = TIM_OCNIDLESTATE_RESET;
 512              		.loc 1 377 25 is_stmt 0 view .LVU166
 513 0058 0E94     		str	r4, [sp, #56]
 378:Core/Src/main.c ****   if (HAL_TIM_PWM_ConfigChannel(&htim8, &sConfigOC, TIM_CHANNEL_1) != HAL_OK)
 514              		.loc 1 378 3 is_stmt 1 view .LVU167
 378:Core/Src/main.c ****   if (HAL_TIM_PWM_ConfigChannel(&htim8, &sConfigOC, TIM_CHANNEL_1) != HAL_OK)
 515              		.loc 1 378 26 is_stmt 0 view .LVU168
 516 005a 0F94     		str	r4, [sp, #60]
 379:Core/Src/main.c ****   {
 517              		.loc 1 379 3 is_stmt 1 view .LVU169
 379:Core/Src/main.c ****   {
 518              		.loc 1 379 7 is_stmt 0 view .LVU170
 519 005c 2246     		mov	r2, r4
 520 005e 09A9     		add	r1, sp, #36
 521 0060 2846     		mov	r0, r5
ARM GAS  /var/folders/cb/0rfcg7_d4zbdkgdchwlcykcc0000gn/T//cc0laMba.s 			page 21


 522 0062 FFF7FEFF 		bl	HAL_TIM_PWM_ConfigChannel
 523              	.LVL11:
 383:Core/Src/main.c ****   {
 524              		.loc 1 383 3 is_stmt 1 view .LVU171
 383:Core/Src/main.c ****   {
 525              		.loc 1 383 7 is_stmt 0 view .LVU172
 526 0066 0422     		movs	r2, #4
 527 0068 09A9     		add	r1, sp, #36
 528 006a 2846     		mov	r0, r5
 529 006c FFF7FEFF 		bl	HAL_TIM_PWM_ConfigChannel
 530              	.LVL12:
 387:Core/Src/main.c ****   {
 531              		.loc 1 387 3 is_stmt 1 view .LVU173
 387:Core/Src/main.c ****   {
 532              		.loc 1 387 7 is_stmt 0 view .LVU174
 533 0070 0822     		movs	r2, #8
 534 0072 09A9     		add	r1, sp, #36
 535 0074 2846     		mov	r0, r5
 536 0076 FFF7FEFF 		bl	HAL_TIM_PWM_ConfigChannel
 537              	.LVL13:
 391:Core/Src/main.c ****   {
 538              		.loc 1 391 3 is_stmt 1 view .LVU175
 391:Core/Src/main.c ****   {
 539              		.loc 1 391 7 is_stmt 0 view .LVU176
 540 007a 0C22     		movs	r2, #12
 541 007c 09A9     		add	r1, sp, #36
 542 007e 2846     		mov	r0, r5
 543 0080 FFF7FEFF 		bl	HAL_TIM_PWM_ConfigChannel
 544              	.LVL14:
 395:Core/Src/main.c ****   sBreakDeadTimeConfig.OffStateIDLEMode = TIM_OSSI_DISABLE;
 545              		.loc 1 395 3 is_stmt 1 view .LVU177
 395:Core/Src/main.c ****   sBreakDeadTimeConfig.OffStateIDLEMode = TIM_OSSI_DISABLE;
 546              		.loc 1 395 40 is_stmt 0 view .LVU178
 547 0084 0194     		str	r4, [sp, #4]
 396:Core/Src/main.c ****   sBreakDeadTimeConfig.LockLevel = TIM_LOCKLEVEL_OFF;
 548              		.loc 1 396 3 is_stmt 1 view .LVU179
 396:Core/Src/main.c ****   sBreakDeadTimeConfig.LockLevel = TIM_LOCKLEVEL_OFF;
 549              		.loc 1 396 41 is_stmt 0 view .LVU180
 550 0086 0294     		str	r4, [sp, #8]
 397:Core/Src/main.c ****   sBreakDeadTimeConfig.DeadTime = 0;
 551              		.loc 1 397 3 is_stmt 1 view .LVU181
 397:Core/Src/main.c ****   sBreakDeadTimeConfig.DeadTime = 0;
 552              		.loc 1 397 34 is_stmt 0 view .LVU182
 553 0088 0394     		str	r4, [sp, #12]
 398:Core/Src/main.c ****   sBreakDeadTimeConfig.BreakState = TIM_BREAK_DISABLE;
 554              		.loc 1 398 3 is_stmt 1 view .LVU183
 398:Core/Src/main.c ****   sBreakDeadTimeConfig.BreakState = TIM_BREAK_DISABLE;
 555              		.loc 1 398 33 is_stmt 0 view .LVU184
 556 008a 0494     		str	r4, [sp, #16]
 399:Core/Src/main.c ****   sBreakDeadTimeConfig.BreakPolarity = TIM_BREAKPOLARITY_HIGH;
 557              		.loc 1 399 3 is_stmt 1 view .LVU185
 399:Core/Src/main.c ****   sBreakDeadTimeConfig.BreakPolarity = TIM_BREAKPOLARITY_HIGH;
 558              		.loc 1 399 35 is_stmt 0 view .LVU186
 559 008c 0594     		str	r4, [sp, #20]
 400:Core/Src/main.c ****   sBreakDeadTimeConfig.AutomaticOutput = TIM_AUTOMATICOUTPUT_DISABLE;
 560              		.loc 1 400 3 is_stmt 1 view .LVU187
 400:Core/Src/main.c ****   sBreakDeadTimeConfig.AutomaticOutput = TIM_AUTOMATICOUTPUT_DISABLE;
ARM GAS  /var/folders/cb/0rfcg7_d4zbdkgdchwlcykcc0000gn/T//cc0laMba.s 			page 22


 561              		.loc 1 400 38 is_stmt 0 view .LVU188
 562 008e 4FF40053 		mov	r3, #8192
 563 0092 0693     		str	r3, [sp, #24]
 401:Core/Src/main.c ****   if (HAL_TIMEx_ConfigBreakDeadTime(&htim8, &sBreakDeadTimeConfig) != HAL_OK)
 564              		.loc 1 401 3 is_stmt 1 view .LVU189
 401:Core/Src/main.c ****   if (HAL_TIMEx_ConfigBreakDeadTime(&htim8, &sBreakDeadTimeConfig) != HAL_OK)
 565              		.loc 1 401 40 is_stmt 0 view .LVU190
 566 0094 0894     		str	r4, [sp, #32]
 402:Core/Src/main.c ****   {
 567              		.loc 1 402 3 is_stmt 1 view .LVU191
 402:Core/Src/main.c ****   {
 568              		.loc 1 402 7 is_stmt 0 view .LVU192
 569 0096 01A9     		add	r1, sp, #4
 570 0098 2846     		mov	r0, r5
 571 009a FFF7FEFF 		bl	HAL_TIMEx_ConfigBreakDeadTime
 572              	.LVL15:
 409:Core/Src/main.c **** 
 573              		.loc 1 409 3 is_stmt 1 view .LVU193
 574 009e 2846     		mov	r0, r5
 575 00a0 FFF7FEFF 		bl	HAL_TIM_MspPostInit
 576              	.LVL16:
 411:Core/Src/main.c **** 
 577              		.loc 1 411 1 is_stmt 0 view .LVU194
 578 00a4 13B0     		add	sp, sp, #76
 579              	.LCFI9:
 580              		.cfi_def_cfa_offset 12
 581              		@ sp needed
 582 00a6 30BD     		pop	{r4, r5, pc}
 583              	.L20:
 584              		.align	2
 585              	.L19:
 586 00a8 00000000 		.word	htim8
 587 00ac 00040140 		.word	1073808384
 588              		.cfi_endproc
 589              	.LFE135:
 591              		.section	.text.MX_USART2_UART_Init,"ax",%progbits
 592              		.align	1
 593              		.syntax unified
 594              		.thumb
 595              		.thumb_func
 596              		.fpu fpv4-sp-d16
 598              	MX_USART2_UART_Init:
 599              	.LFB136:
 419:Core/Src/main.c **** 
 600              		.loc 1 419 1 is_stmt 1 view -0
 601              		.cfi_startproc
 602              		@ args = 0, pretend = 0, frame = 0
 603              		@ frame_needed = 0, uses_anonymous_args = 0
 604 0000 08B5     		push	{r3, lr}
 605              	.LCFI10:
 606              		.cfi_def_cfa_offset 8
 607              		.cfi_offset 3, -8
 608              		.cfi_offset 14, -4
 428:Core/Src/main.c ****   huart2.Init.BaudRate = 115200;
 609              		.loc 1 428 3 view .LVU196
 428:Core/Src/main.c ****   huart2.Init.BaudRate = 115200;
 610              		.loc 1 428 19 is_stmt 0 view .LVU197
ARM GAS  /var/folders/cb/0rfcg7_d4zbdkgdchwlcykcc0000gn/T//cc0laMba.s 			page 23


 611 0002 0848     		ldr	r0, .L23
 612 0004 084B     		ldr	r3, .L23+4
 613 0006 0360     		str	r3, [r0]
 429:Core/Src/main.c ****   huart2.Init.WordLength = UART_WORDLENGTH_8B;
 614              		.loc 1 429 3 is_stmt 1 view .LVU198
 429:Core/Src/main.c ****   huart2.Init.WordLength = UART_WORDLENGTH_8B;
 615              		.loc 1 429 24 is_stmt 0 view .LVU199
 616 0008 4FF4E133 		mov	r3, #115200
 617 000c 4360     		str	r3, [r0, #4]
 430:Core/Src/main.c ****   huart2.Init.StopBits = UART_STOPBITS_1;
 618              		.loc 1 430 3 is_stmt 1 view .LVU200
 430:Core/Src/main.c ****   huart2.Init.StopBits = UART_STOPBITS_1;
 619              		.loc 1 430 26 is_stmt 0 view .LVU201
 620 000e 0023     		movs	r3, #0
 621 0010 8360     		str	r3, [r0, #8]
 431:Core/Src/main.c ****   huart2.Init.Parity = UART_PARITY_NONE;
 622              		.loc 1 431 3 is_stmt 1 view .LVU202
 431:Core/Src/main.c ****   huart2.Init.Parity = UART_PARITY_NONE;
 623              		.loc 1 431 24 is_stmt 0 view .LVU203
 624 0012 C360     		str	r3, [r0, #12]
 432:Core/Src/main.c ****   huart2.Init.Mode = UART_MODE_TX_RX;
 625              		.loc 1 432 3 is_stmt 1 view .LVU204
 432:Core/Src/main.c ****   huart2.Init.Mode = UART_MODE_TX_RX;
 626              		.loc 1 432 22 is_stmt 0 view .LVU205
 627 0014 0361     		str	r3, [r0, #16]
 433:Core/Src/main.c ****   huart2.Init.HwFlowCtl = UART_HWCONTROL_NONE;
 628              		.loc 1 433 3 is_stmt 1 view .LVU206
 433:Core/Src/main.c ****   huart2.Init.HwFlowCtl = UART_HWCONTROL_NONE;
 629              		.loc 1 433 20 is_stmt 0 view .LVU207
 630 0016 0C22     		movs	r2, #12
 631 0018 4261     		str	r2, [r0, #20]
 434:Core/Src/main.c ****   huart2.Init.OverSampling = UART_OVERSAMPLING_16;
 632              		.loc 1 434 3 is_stmt 1 view .LVU208
 434:Core/Src/main.c ****   huart2.Init.OverSampling = UART_OVERSAMPLING_16;
 633              		.loc 1 434 25 is_stmt 0 view .LVU209
 634 001a 8361     		str	r3, [r0, #24]
 435:Core/Src/main.c ****   if (HAL_UART_Init(&huart2) != HAL_OK)
 635              		.loc 1 435 3 is_stmt 1 view .LVU210
 435:Core/Src/main.c ****   if (HAL_UART_Init(&huart2) != HAL_OK)
 636              		.loc 1 435 28 is_stmt 0 view .LVU211
 637 001c C361     		str	r3, [r0, #28]
 436:Core/Src/main.c ****   {
 638              		.loc 1 436 3 is_stmt 1 view .LVU212
 436:Core/Src/main.c ****   {
 639              		.loc 1 436 7 is_stmt 0 view .LVU213
 640 001e FFF7FEFF 		bl	HAL_UART_Init
 641              	.LVL17:
 444:Core/Src/main.c **** 
 642              		.loc 1 444 1 view .LVU214
 643 0022 08BD     		pop	{r3, pc}
 644              	.L24:
 645              		.align	2
 646              	.L23:
 647 0024 00000000 		.word	huart2
 648 0028 00440040 		.word	1073759232
 649              		.cfi_endproc
 650              	.LFE136:
ARM GAS  /var/folders/cb/0rfcg7_d4zbdkgdchwlcykcc0000gn/T//cc0laMba.s 			page 24


 652              		.section	.text.MX_USART3_UART_Init,"ax",%progbits
 653              		.align	1
 654              		.syntax unified
 655              		.thumb
 656              		.thumb_func
 657              		.fpu fpv4-sp-d16
 659              	MX_USART3_UART_Init:
 660              	.LFB137:
 452:Core/Src/main.c **** 
 661              		.loc 1 452 1 is_stmt 1 view -0
 662              		.cfi_startproc
 663              		@ args = 0, pretend = 0, frame = 0
 664              		@ frame_needed = 0, uses_anonymous_args = 0
 665 0000 08B5     		push	{r3, lr}
 666              	.LCFI11:
 667              		.cfi_def_cfa_offset 8
 668              		.cfi_offset 3, -8
 669              		.cfi_offset 14, -4
 461:Core/Src/main.c ****   huart3.Init.BaudRate = 115200;
 670              		.loc 1 461 3 view .LVU216
 461:Core/Src/main.c ****   huart3.Init.BaudRate = 115200;
 671              		.loc 1 461 19 is_stmt 0 view .LVU217
 672 0002 0848     		ldr	r0, .L27
 673 0004 084B     		ldr	r3, .L27+4
 674 0006 0360     		str	r3, [r0]
 462:Core/Src/main.c ****   huart3.Init.WordLength = UART_WORDLENGTH_8B;
 675              		.loc 1 462 3 is_stmt 1 view .LVU218
 462:Core/Src/main.c ****   huart3.Init.WordLength = UART_WORDLENGTH_8B;
 676              		.loc 1 462 24 is_stmt 0 view .LVU219
 677 0008 4FF4E133 		mov	r3, #115200
 678 000c 4360     		str	r3, [r0, #4]
 463:Core/Src/main.c ****   huart3.Init.StopBits = UART_STOPBITS_1;
 679              		.loc 1 463 3 is_stmt 1 view .LVU220
 463:Core/Src/main.c ****   huart3.Init.StopBits = UART_STOPBITS_1;
 680              		.loc 1 463 26 is_stmt 0 view .LVU221
 681 000e 0023     		movs	r3, #0
 682 0010 8360     		str	r3, [r0, #8]
 464:Core/Src/main.c ****   huart3.Init.Parity = UART_PARITY_NONE;
 683              		.loc 1 464 3 is_stmt 1 view .LVU222
 464:Core/Src/main.c ****   huart3.Init.Parity = UART_PARITY_NONE;
 684              		.loc 1 464 24 is_stmt 0 view .LVU223
 685 0012 C360     		str	r3, [r0, #12]
 465:Core/Src/main.c ****   huart3.Init.Mode = UART_MODE_TX_RX;
 686              		.loc 1 465 3 is_stmt 1 view .LVU224
 465:Core/Src/main.c ****   huart3.Init.Mode = UART_MODE_TX_RX;
 687              		.loc 1 465 22 is_stmt 0 view .LVU225
 688 0014 0361     		str	r3, [r0, #16]
 466:Core/Src/main.c ****   huart3.Init.HwFlowCtl = UART_HWCONTROL_NONE;
 689              		.loc 1 466 3 is_stmt 1 view .LVU226
 466:Core/Src/main.c ****   huart3.Init.HwFlowCtl = UART_HWCONTROL_NONE;
 690              		.loc 1 466 20 is_stmt 0 view .LVU227
 691 0016 0C22     		movs	r2, #12
 692 0018 4261     		str	r2, [r0, #20]
 467:Core/Src/main.c ****   huart3.Init.OverSampling = UART_OVERSAMPLING_16;
 693              		.loc 1 467 3 is_stmt 1 view .LVU228
 467:Core/Src/main.c ****   huart3.Init.OverSampling = UART_OVERSAMPLING_16;
 694              		.loc 1 467 25 is_stmt 0 view .LVU229
ARM GAS  /var/folders/cb/0rfcg7_d4zbdkgdchwlcykcc0000gn/T//cc0laMba.s 			page 25


 695 001a 8361     		str	r3, [r0, #24]
 468:Core/Src/main.c ****   if (HAL_UART_Init(&huart3) != HAL_OK)
 696              		.loc 1 468 3 is_stmt 1 view .LVU230
 468:Core/Src/main.c ****   if (HAL_UART_Init(&huart3) != HAL_OK)
 697              		.loc 1 468 28 is_stmt 0 view .LVU231
 698 001c C361     		str	r3, [r0, #28]
 469:Core/Src/main.c ****   {
 699              		.loc 1 469 3 is_stmt 1 view .LVU232
 469:Core/Src/main.c ****   {
 700              		.loc 1 469 7 is_stmt 0 view .LVU233
 701 001e FFF7FEFF 		bl	HAL_UART_Init
 702              	.LVL18:
 477:Core/Src/main.c **** 
 703              		.loc 1 477 1 view .LVU234
 704 0022 08BD     		pop	{r3, pc}
 705              	.L28:
 706              		.align	2
 707              	.L27:
 708 0024 00000000 		.word	huart3
 709 0028 00480040 		.word	1073760256
 710              		.cfi_endproc
 711              	.LFE137:
 713              		.section	.text.SystemClock_Config,"ax",%progbits
 714              		.align	1
 715              		.global	SystemClock_Config
 716              		.syntax unified
 717              		.thumb
 718              		.thumb_func
 719              		.fpu fpv4-sp-d16
 721              	SystemClock_Config:
 722              	.LFB131:
 169:Core/Src/main.c ****   RCC_OscInitTypeDef RCC_OscInitStruct = {0};
 723              		.loc 1 169 1 is_stmt 1 view -0
 724              		.cfi_startproc
 725              		@ args = 0, pretend = 0, frame = 80
 726              		@ frame_needed = 0, uses_anonymous_args = 0
 727 0000 30B5     		push	{r4, r5, lr}
 728              	.LCFI12:
 729              		.cfi_def_cfa_offset 12
 730              		.cfi_offset 4, -12
 731              		.cfi_offset 5, -8
 732              		.cfi_offset 14, -4
 733 0002 95B0     		sub	sp, sp, #84
 734              	.LCFI13:
 735              		.cfi_def_cfa_offset 96
 170:Core/Src/main.c ****   RCC_ClkInitTypeDef RCC_ClkInitStruct = {0};
 736              		.loc 1 170 3 view .LVU236
 170:Core/Src/main.c ****   RCC_ClkInitTypeDef RCC_ClkInitStruct = {0};
 737              		.loc 1 170 22 is_stmt 0 view .LVU237
 738 0004 3022     		movs	r2, #48
 739 0006 0021     		movs	r1, #0
 740 0008 08A8     		add	r0, sp, #32
 741 000a FFF7FEFF 		bl	memset
 742              	.LVL19:
 171:Core/Src/main.c **** 
 743              		.loc 1 171 3 is_stmt 1 view .LVU238
 171:Core/Src/main.c **** 
ARM GAS  /var/folders/cb/0rfcg7_d4zbdkgdchwlcykcc0000gn/T//cc0laMba.s 			page 26


 744              		.loc 1 171 22 is_stmt 0 view .LVU239
 745 000e 0024     		movs	r4, #0
 746 0010 0394     		str	r4, [sp, #12]
 747 0012 0494     		str	r4, [sp, #16]
 748 0014 0594     		str	r4, [sp, #20]
 749 0016 0694     		str	r4, [sp, #24]
 750 0018 0794     		str	r4, [sp, #28]
 175:Core/Src/main.c ****   __HAL_PWR_VOLTAGESCALING_CONFIG(PWR_REGULATOR_VOLTAGE_SCALE1);
 751              		.loc 1 175 3 is_stmt 1 view .LVU240
 752              	.LBB8:
 175:Core/Src/main.c ****   __HAL_PWR_VOLTAGESCALING_CONFIG(PWR_REGULATOR_VOLTAGE_SCALE1);
 753              		.loc 1 175 3 view .LVU241
 754 001a 0194     		str	r4, [sp, #4]
 175:Core/Src/main.c ****   __HAL_PWR_VOLTAGESCALING_CONFIG(PWR_REGULATOR_VOLTAGE_SCALE1);
 755              		.loc 1 175 3 view .LVU242
 756 001c 1B4B     		ldr	r3, .L31
 757 001e 1A6C     		ldr	r2, [r3, #64]
 758 0020 42F08052 		orr	r2, r2, #268435456
 759 0024 1A64     		str	r2, [r3, #64]
 175:Core/Src/main.c ****   __HAL_PWR_VOLTAGESCALING_CONFIG(PWR_REGULATOR_VOLTAGE_SCALE1);
 760              		.loc 1 175 3 view .LVU243
 761 0026 1B6C     		ldr	r3, [r3, #64]
 762 0028 03F08053 		and	r3, r3, #268435456
 763 002c 0193     		str	r3, [sp, #4]
 175:Core/Src/main.c ****   __HAL_PWR_VOLTAGESCALING_CONFIG(PWR_REGULATOR_VOLTAGE_SCALE1);
 764              		.loc 1 175 3 view .LVU244
 765 002e 019B     		ldr	r3, [sp, #4]
 766              	.LBE8:
 175:Core/Src/main.c ****   __HAL_PWR_VOLTAGESCALING_CONFIG(PWR_REGULATOR_VOLTAGE_SCALE1);
 767              		.loc 1 175 3 view .LVU245
 176:Core/Src/main.c ****   /** Initializes the RCC Oscillators according to the specified parameters
 768              		.loc 1 176 3 view .LVU246
 769              	.LBB9:
 176:Core/Src/main.c ****   /** Initializes the RCC Oscillators according to the specified parameters
 770              		.loc 1 176 3 view .LVU247
 771 0030 0294     		str	r4, [sp, #8]
 176:Core/Src/main.c ****   /** Initializes the RCC Oscillators according to the specified parameters
 772              		.loc 1 176 3 view .LVU248
 773 0032 174B     		ldr	r3, .L31+4
 774 0034 1A68     		ldr	r2, [r3]
 775 0036 42F48042 		orr	r2, r2, #16384
 776 003a 1A60     		str	r2, [r3]
 176:Core/Src/main.c ****   /** Initializes the RCC Oscillators according to the specified parameters
 777              		.loc 1 176 3 view .LVU249
 778 003c 1B68     		ldr	r3, [r3]
 779 003e 03F48043 		and	r3, r3, #16384
 780 0042 0293     		str	r3, [sp, #8]
 176:Core/Src/main.c ****   /** Initializes the RCC Oscillators according to the specified parameters
 781              		.loc 1 176 3 view .LVU250
 782 0044 029B     		ldr	r3, [sp, #8]
 783              	.LBE9:
 176:Core/Src/main.c ****   /** Initializes the RCC Oscillators according to the specified parameters
 784              		.loc 1 176 3 view .LVU251
 180:Core/Src/main.c ****   RCC_OscInitStruct.HSEState = RCC_HSE_ON;
 785              		.loc 1 180 3 view .LVU252
 180:Core/Src/main.c ****   RCC_OscInitStruct.HSEState = RCC_HSE_ON;
 786              		.loc 1 180 36 is_stmt 0 view .LVU253
ARM GAS  /var/folders/cb/0rfcg7_d4zbdkgdchwlcykcc0000gn/T//cc0laMba.s 			page 27


 787 0046 0123     		movs	r3, #1
 788 0048 0893     		str	r3, [sp, #32]
 181:Core/Src/main.c ****   RCC_OscInitStruct.PLL.PLLState = RCC_PLL_ON;
 789              		.loc 1 181 3 is_stmt 1 view .LVU254
 181:Core/Src/main.c ****   RCC_OscInitStruct.PLL.PLLState = RCC_PLL_ON;
 790              		.loc 1 181 30 is_stmt 0 view .LVU255
 791 004a 4FF48033 		mov	r3, #65536
 792 004e 0993     		str	r3, [sp, #36]
 182:Core/Src/main.c ****   RCC_OscInitStruct.PLL.PLLSource = RCC_PLLSOURCE_HSE;
 793              		.loc 1 182 3 is_stmt 1 view .LVU256
 182:Core/Src/main.c ****   RCC_OscInitStruct.PLL.PLLSource = RCC_PLLSOURCE_HSE;
 794              		.loc 1 182 34 is_stmt 0 view .LVU257
 795 0050 0225     		movs	r5, #2
 796 0052 0E95     		str	r5, [sp, #56]
 183:Core/Src/main.c ****   RCC_OscInitStruct.PLL.PLLM = 4;
 797              		.loc 1 183 3 is_stmt 1 view .LVU258
 183:Core/Src/main.c ****   RCC_OscInitStruct.PLL.PLLM = 4;
 798              		.loc 1 183 35 is_stmt 0 view .LVU259
 799 0054 4FF48003 		mov	r3, #4194304
 800 0058 0F93     		str	r3, [sp, #60]
 184:Core/Src/main.c ****   RCC_OscInitStruct.PLL.PLLN = 168;
 801              		.loc 1 184 3 is_stmt 1 view .LVU260
 184:Core/Src/main.c ****   RCC_OscInitStruct.PLL.PLLN = 168;
 802              		.loc 1 184 30 is_stmt 0 view .LVU261
 803 005a 0423     		movs	r3, #4
 804 005c 1093     		str	r3, [sp, #64]
 185:Core/Src/main.c ****   RCC_OscInitStruct.PLL.PLLP = RCC_PLLP_DIV2;
 805              		.loc 1 185 3 is_stmt 1 view .LVU262
 185:Core/Src/main.c ****   RCC_OscInitStruct.PLL.PLLP = RCC_PLLP_DIV2;
 806              		.loc 1 185 30 is_stmt 0 view .LVU263
 807 005e A822     		movs	r2, #168
 808 0060 1192     		str	r2, [sp, #68]
 186:Core/Src/main.c ****   RCC_OscInitStruct.PLL.PLLQ = 4;
 809              		.loc 1 186 3 is_stmt 1 view .LVU264
 186:Core/Src/main.c ****   RCC_OscInitStruct.PLL.PLLQ = 4;
 810              		.loc 1 186 30 is_stmt 0 view .LVU265
 811 0062 1295     		str	r5, [sp, #72]
 187:Core/Src/main.c ****   if (HAL_RCC_OscConfig(&RCC_OscInitStruct) != HAL_OK)
 812              		.loc 1 187 3 is_stmt 1 view .LVU266
 187:Core/Src/main.c ****   if (HAL_RCC_OscConfig(&RCC_OscInitStruct) != HAL_OK)
 813              		.loc 1 187 30 is_stmt 0 view .LVU267
 814 0064 1393     		str	r3, [sp, #76]
 188:Core/Src/main.c ****   {
 815              		.loc 1 188 3 is_stmt 1 view .LVU268
 188:Core/Src/main.c ****   {
 816              		.loc 1 188 7 is_stmt 0 view .LVU269
 817 0066 08A8     		add	r0, sp, #32
 818 0068 FFF7FEFF 		bl	HAL_RCC_OscConfig
 819              	.LVL20:
 194:Core/Src/main.c ****                               |RCC_CLOCKTYPE_PCLK1|RCC_CLOCKTYPE_PCLK2;
 820              		.loc 1 194 3 is_stmt 1 view .LVU270
 194:Core/Src/main.c ****                               |RCC_CLOCKTYPE_PCLK1|RCC_CLOCKTYPE_PCLK2;
 821              		.loc 1 194 31 is_stmt 0 view .LVU271
 822 006c 0F23     		movs	r3, #15
 823 006e 0393     		str	r3, [sp, #12]
 196:Core/Src/main.c ****   RCC_ClkInitStruct.AHBCLKDivider = RCC_SYSCLK_DIV1;
 824              		.loc 1 196 3 is_stmt 1 view .LVU272
ARM GAS  /var/folders/cb/0rfcg7_d4zbdkgdchwlcykcc0000gn/T//cc0laMba.s 			page 28


 196:Core/Src/main.c ****   RCC_ClkInitStruct.AHBCLKDivider = RCC_SYSCLK_DIV1;
 825              		.loc 1 196 34 is_stmt 0 view .LVU273
 826 0070 0495     		str	r5, [sp, #16]
 197:Core/Src/main.c ****   RCC_ClkInitStruct.APB1CLKDivider = RCC_HCLK_DIV4;
 827              		.loc 1 197 3 is_stmt 1 view .LVU274
 197:Core/Src/main.c ****   RCC_ClkInitStruct.APB1CLKDivider = RCC_HCLK_DIV4;
 828              		.loc 1 197 35 is_stmt 0 view .LVU275
 829 0072 0594     		str	r4, [sp, #20]
 198:Core/Src/main.c ****   RCC_ClkInitStruct.APB2CLKDivider = RCC_HCLK_DIV2;
 830              		.loc 1 198 3 is_stmt 1 view .LVU276
 198:Core/Src/main.c ****   RCC_ClkInitStruct.APB2CLKDivider = RCC_HCLK_DIV2;
 831              		.loc 1 198 36 is_stmt 0 view .LVU277
 832 0074 4FF4A053 		mov	r3, #5120
 833 0078 0693     		str	r3, [sp, #24]
 199:Core/Src/main.c **** 
 834              		.loc 1 199 3 is_stmt 1 view .LVU278
 199:Core/Src/main.c **** 
 835              		.loc 1 199 36 is_stmt 0 view .LVU279
 836 007a 4FF48053 		mov	r3, #4096
 837 007e 0793     		str	r3, [sp, #28]
 201:Core/Src/main.c ****   {
 838              		.loc 1 201 3 is_stmt 1 view .LVU280
 201:Core/Src/main.c ****   {
 839              		.loc 1 201 7 is_stmt 0 view .LVU281
 840 0080 0521     		movs	r1, #5
 841 0082 03A8     		add	r0, sp, #12
 842 0084 FFF7FEFF 		bl	HAL_RCC_ClockConfig
 843              	.LVL21:
 205:Core/Src/main.c **** 
 844              		.loc 1 205 1 view .LVU282
 845 0088 15B0     		add	sp, sp, #84
 846              	.LCFI14:
 847              		.cfi_def_cfa_offset 12
 848              		@ sp needed
 849 008a 30BD     		pop	{r4, r5, pc}
 850              	.L32:
 851              		.align	2
 852              	.L31:
 853 008c 00380240 		.word	1073887232
 854 0090 00700040 		.word	1073770496
 855              		.cfi_endproc
 856              	.LFE131:
 858              		.section	.rodata.main.str1.4,"aMS",%progbits,1
 859              		.align	2
 860              	.LC0:
 861 0000 73686F77 		.ascii	"show num:%d\000"
 861      206E756D 
 861      3A256400 
 862              		.section	.text.main,"ax",%progbits
 863              		.align	1
 864              		.global	main
 865              		.syntax unified
 866              		.thumb
 867              		.thumb_func
 868              		.fpu fpv4-sp-d16
 870              	main:
 871              	.LFB130:
ARM GAS  /var/folders/cb/0rfcg7_d4zbdkgdchwlcykcc0000gn/T//cc0laMba.s 			page 29


  83:Core/Src/main.c ****   /* USER CODE BEGIN 1 */
 872              		.loc 1 83 1 is_stmt 1 view -0
 873              		.cfi_startproc
 874              		@ args = 0, pretend = 0, frame = 56
 875              		@ frame_needed = 0, uses_anonymous_args = 0
 876 0000 10B5     		push	{r4, lr}
 877              	.LCFI15:
 878              		.cfi_def_cfa_offset 8
 879              		.cfi_offset 4, -8
 880              		.cfi_offset 14, -4
 881 0002 8EB0     		sub	sp, sp, #56
 882              	.LCFI16:
 883              		.cfi_def_cfa_offset 64
  91:Core/Src/main.c **** 
 884              		.loc 1 91 3 view .LVU284
 885 0004 FFF7FEFF 		bl	HAL_Init
 886              	.LVL22:
  98:Core/Src/main.c **** 
 887              		.loc 1 98 3 view .LVU285
 888 0008 FFF7FEFF 		bl	SystemClock_Config
 889              	.LVL23:
 105:Core/Src/main.c ****   MX_I2C1_Init();
 890              		.loc 1 105 3 view .LVU286
 891 000c FFF7FEFF 		bl	MX_GPIO_Init
 892              	.LVL24:
 106:Core/Src/main.c ****   MX_I2C2_Init();
 893              		.loc 1 106 3 view .LVU287
 894 0010 FFF7FEFF 		bl	MX_I2C1_Init
 895              	.LVL25:
 107:Core/Src/main.c ****   MX_TIM1_Init();
 896              		.loc 1 107 3 view .LVU288
 897 0014 FFF7FEFF 		bl	MX_I2C2_Init
 898              	.LVL26:
 108:Core/Src/main.c ****   MX_TIM8_Init();
 899              		.loc 1 108 3 view .LVU289
 900 0018 FFF7FEFF 		bl	MX_TIM1_Init
 901              	.LVL27:
 109:Core/Src/main.c ****   MX_USART2_UART_Init();
 902              		.loc 1 109 3 view .LVU290
 903 001c FFF7FEFF 		bl	MX_TIM8_Init
 904              	.LVL28:
 110:Core/Src/main.c ****   MX_USART3_UART_Init();
 905              		.loc 1 110 3 view .LVU291
 906 0020 FFF7FEFF 		bl	MX_USART2_UART_Init
 907              	.LVL29:
 111:Core/Src/main.c ****   /* USER CODE BEGIN 2 */
 908              		.loc 1 111 3 view .LVU292
 909 0024 FFF7FEFF 		bl	MX_USART3_UART_Init
 910              	.LVL30:
 113:Core/Src/main.c ****   bsp_OLED_ON();
 911              		.loc 1 113 3 view .LVU293
 912 0028 FFF7FEFF 		bl	bsp_OLED_Init
 913              	.LVL31:
 114:Core/Src/main.c ****   bsp_OLED_CLR();
 914              		.loc 1 114 3 view .LVU294
 915 002c FFF7FEFF 		bl	bsp_OLED_ON
 916              	.LVL32:
ARM GAS  /var/folders/cb/0rfcg7_d4zbdkgdchwlcykcc0000gn/T//cc0laMba.s 			page 30


 115:Core/Src/main.c ****   unsigned int i =1;
 917              		.loc 1 115 3 view .LVU295
 918 0030 FFF7FEFF 		bl	bsp_OLED_CLR
 919              	.LVL33:
 116:Core/Src/main.c ****   unsigned char buf[50];
 920              		.loc 1 116 3 view .LVU296
 116:Core/Src/main.c ****   unsigned char buf[50];
 921              		.loc 1 116 16 is_stmt 0 view .LVU297
 922 0034 0124     		movs	r4, #1
 923              	.LVL34:
 924              	.L34:
 117:Core/Src/main.c ****   /* USER CODE END 2 */
 925              		.loc 1 117 3 is_stmt 1 discriminator 1 view .LVU298
 122:Core/Src/main.c ****   {
 926              		.loc 1 122 3 discriminator 1 view .LVU299
 927              	.LBB10:
 125:Core/Src/main.c ****     i++;
 928              		.loc 1 125 5 discriminator 1 view .LVU300
 929 0036 2246     		mov	r2, r4
 930 0038 1749     		ldr	r1, .L36
 931 003a 01A8     		add	r0, sp, #4
 932 003c FFF7FEFF 		bl	sprintf
 933              	.LVL35:
 126:Core/Src/main.c **** 	  bsp_OLED_ShowStr(0,0,(unsigned char*)buf,1);//显示字符串
 934              		.loc 1 126 5 discriminator 1 view .LVU301
 126:Core/Src/main.c **** 	  bsp_OLED_ShowStr(0,0,(unsigned char*)buf,1);//显示字符串
 935              		.loc 1 126 6 is_stmt 0 discriminator 1 view .LVU302
 936 0040 0134     		adds	r4, r4, #1
 937              	.LVL36:
 127:Core/Src/main.c ****     bsp_OLED_ShowStr(0,1,(unsigned char*)buf,1);//显示字符串
 938              		.loc 1 127 4 is_stmt 1 discriminator 1 view .LVU303
 939 0042 0123     		movs	r3, #1
 940 0044 01AA     		add	r2, sp, #4
 941 0046 0021     		movs	r1, #0
 942 0048 0846     		mov	r0, r1
 943 004a FFF7FEFF 		bl	bsp_OLED_ShowStr
 944              	.LVL37:
 128:Core/Src/main.c ****     bsp_OLED_ShowStr(0,2,(unsigned char*)buf,1);//显示字符串
 945              		.loc 1 128 5 discriminator 1 view .LVU304
 946 004e 0123     		movs	r3, #1
 947 0050 01AA     		add	r2, sp, #4
 948 0052 1946     		mov	r1, r3
 949 0054 0020     		movs	r0, #0
 950 0056 FFF7FEFF 		bl	bsp_OLED_ShowStr
 951              	.LVL38:
 129:Core/Src/main.c ****     bsp_OLED_ShowStr(0,3,(unsigned char*)buf,1);//显示字符串
 952              		.loc 1 129 5 discriminator 1 view .LVU305
 953 005a 0123     		movs	r3, #1
 954 005c 01AA     		add	r2, sp, #4
 955 005e 0221     		movs	r1, #2
 956 0060 0020     		movs	r0, #0
 957 0062 FFF7FEFF 		bl	bsp_OLED_ShowStr
 958              	.LVL39:
 130:Core/Src/main.c ****     bsp_OLED_ShowStr(0,4,(unsigned char*)buf,1);//显示字符串
 959              		.loc 1 130 5 discriminator 1 view .LVU306
 960 0066 0123     		movs	r3, #1
 961 0068 01AA     		add	r2, sp, #4
ARM GAS  /var/folders/cb/0rfcg7_d4zbdkgdchwlcykcc0000gn/T//cc0laMba.s 			page 31


 962 006a 0321     		movs	r1, #3
 963 006c 0020     		movs	r0, #0
 964 006e FFF7FEFF 		bl	bsp_OLED_ShowStr
 965              	.LVL40:
 131:Core/Src/main.c ****     bsp_OLED_ShowStr(0,5,(unsigned char*)buf,1);//显示字符串
 966              		.loc 1 131 5 discriminator 1 view .LVU307
 967 0072 0123     		movs	r3, #1
 968 0074 01AA     		add	r2, sp, #4
 969 0076 0421     		movs	r1, #4
 970 0078 0020     		movs	r0, #0
 971 007a FFF7FEFF 		bl	bsp_OLED_ShowStr
 972              	.LVL41:
 132:Core/Src/main.c ****     bsp_OLED_ShowStr(0,6,(unsigned char*)buf,1);//显示字符串
 973              		.loc 1 132 5 discriminator 1 view .LVU308
 974 007e 0123     		movs	r3, #1
 975 0080 01AA     		add	r2, sp, #4
 976 0082 0521     		movs	r1, #5
 977 0084 0020     		movs	r0, #0
 978 0086 FFF7FEFF 		bl	bsp_OLED_ShowStr
 979              	.LVL42:
 133:Core/Src/main.c ****     /* USER CODE BEGIN 3 */
 980              		.loc 1 133 5 discriminator 1 view .LVU309
 981 008a 0123     		movs	r3, #1
 982 008c 01AA     		add	r2, sp, #4
 983 008e 0621     		movs	r1, #6
 984 0090 0020     		movs	r0, #0
 985 0092 FFF7FEFF 		bl	bsp_OLED_ShowStr
 986              	.LVL43:
 987              	.LBE10:
 122:Core/Src/main.c ****   {
 988              		.loc 1 122 9 discriminator 1 view .LVU310
 989 0096 CEE7     		b	.L34
 990              	.L37:
 991              		.align	2
 992              	.L36:
 993 0098 00000000 		.word	.LC0
 994              		.cfi_endproc
 995              	.LFE130:
 997              		.section	.text.Error_Handler,"ax",%progbits
 998              		.align	1
 999              		.global	Error_Handler
 1000              		.syntax unified
 1001              		.thumb
 1002              		.thumb_func
 1003              		.fpu fpv4-sp-d16
 1005              	Error_Handler:
 1006              	.LFB139:
 496:Core/Src/main.c **** 
 497:Core/Src/main.c **** /* USER CODE BEGIN 4 */
 498:Core/Src/main.c **** 
 499:Core/Src/main.c **** /* USER CODE END 4 */
 500:Core/Src/main.c **** 
 501:Core/Src/main.c **** /**
 502:Core/Src/main.c ****   * @brief  This function is executed in case of error occurrence.
 503:Core/Src/main.c ****   * @retval None
 504:Core/Src/main.c ****   */
 505:Core/Src/main.c **** void Error_Handler(void)
ARM GAS  /var/folders/cb/0rfcg7_d4zbdkgdchwlcykcc0000gn/T//cc0laMba.s 			page 32


 506:Core/Src/main.c **** {
 1007              		.loc 1 506 1 view -0
 1008              		.cfi_startproc
 1009              		@ args = 0, pretend = 0, frame = 0
 1010              		@ frame_needed = 0, uses_anonymous_args = 0
 1011              		@ link register save eliminated.
 507:Core/Src/main.c ****   /* USER CODE BEGIN Error_Handler_Debug */
 508:Core/Src/main.c ****   /* User can add his own implementation to report the HAL error return state */
 509:Core/Src/main.c **** 
 510:Core/Src/main.c ****   /* USER CODE END Error_Handler_Debug */
 511:Core/Src/main.c **** }
 1012              		.loc 1 511 1 view .LVU312
 1013 0000 7047     		bx	lr
 1014              		.cfi_endproc
 1015              	.LFE139:
 1017              		.comm	huart3,64,4
 1018              		.comm	huart2,64,4
 1019              		.comm	htim8,64,4
 1020              		.comm	htim1,64,4
 1021              		.comm	hi2c2,84,4
 1022              		.comm	hi2c1,84,4
 1023              		.text
 1024              	.Letext0:
 1025              		.file 2 "/Applications/ARM/arm-none-eabi/include/machine/_default_types.h"
 1026              		.file 3 "/Applications/ARM/arm-none-eabi/include/sys/_stdint.h"
 1027              		.file 4 "Drivers/CMSIS/Include/core_cm4.h"
 1028              		.file 5 "Drivers/CMSIS/Device/ST/STM32F4xx/Include/system_stm32f4xx.h"
 1029              		.file 6 "Drivers/CMSIS/Device/ST/STM32F4xx/Include/stm32f407xx.h"
 1030              		.file 7 "Drivers/STM32F4xx_HAL_Driver/Inc/stm32f4xx_hal_def.h"
 1031              		.file 8 "Drivers/STM32F4xx_HAL_Driver/Inc/stm32f4xx_hal_rcc_ex.h"
 1032              		.file 9 "Drivers/STM32F4xx_HAL_Driver/Inc/stm32f4xx_hal_rcc.h"
 1033              		.file 10 "Drivers/STM32F4xx_HAL_Driver/Inc/stm32f4xx_hal_dma.h"
 1034              		.file 11 "Drivers/STM32F4xx_HAL_Driver/Inc/stm32f4xx_hal_i2c.h"
 1035              		.file 12 "Drivers/STM32F4xx_HAL_Driver/Inc/stm32f4xx_hal_tim.h"
 1036              		.file 13 "Drivers/STM32F4xx_HAL_Driver/Inc/stm32f4xx_hal_uart.h"
 1037              		.file 14 "Drivers/STM32F4xx_HAL_Driver/Inc/stm32f4xx_hal.h"
 1038              		.file 15 "Drivers/STM32F4xx_HAL_Driver/Inc/stm32f4xx_hal_tim_ex.h"
 1039              		.file 16 "Core/Inc/main.h"
 1040              		.file 17 "<built-in>"
ARM GAS  /var/folders/cb/0rfcg7_d4zbdkgdchwlcykcc0000gn/T//cc0laMba.s 			page 33


DEFINED SYMBOLS
                            *ABS*:0000000000000000 main.c
/var/folders/cb/0rfcg7_d4zbdkgdchwlcykcc0000gn/T//cc0laMba.s:18     .text.MX_GPIO_Init:0000000000000000 $t
/var/folders/cb/0rfcg7_d4zbdkgdchwlcykcc0000gn/T//cc0laMba.s:25     .text.MX_GPIO_Init:0000000000000000 MX_GPIO_Init
/var/folders/cb/0rfcg7_d4zbdkgdchwlcykcc0000gn/T//cc0laMba.s:143    .text.MX_GPIO_Init:0000000000000084 $d
/var/folders/cb/0rfcg7_d4zbdkgdchwlcykcc0000gn/T//cc0laMba.s:148    .text.MX_I2C1_Init:0000000000000000 $t
/var/folders/cb/0rfcg7_d4zbdkgdchwlcykcc0000gn/T//cc0laMba.s:154    .text.MX_I2C1_Init:0000000000000000 MX_I2C1_Init
/var/folders/cb/0rfcg7_d4zbdkgdchwlcykcc0000gn/T//cc0laMba.s:206    .text.MX_I2C1_Init:0000000000000028 $d
                            *COM*:0000000000000054 hi2c1
/var/folders/cb/0rfcg7_d4zbdkgdchwlcykcc0000gn/T//cc0laMba.s:213    .text.MX_I2C2_Init:0000000000000000 $t
/var/folders/cb/0rfcg7_d4zbdkgdchwlcykcc0000gn/T//cc0laMba.s:219    .text.MX_I2C2_Init:0000000000000000 MX_I2C2_Init
/var/folders/cb/0rfcg7_d4zbdkgdchwlcykcc0000gn/T//cc0laMba.s:271    .text.MX_I2C2_Init:0000000000000028 $d
                            *COM*:0000000000000054 hi2c2
/var/folders/cb/0rfcg7_d4zbdkgdchwlcykcc0000gn/T//cc0laMba.s:278    .text.MX_TIM1_Init:0000000000000000 $t
/var/folders/cb/0rfcg7_d4zbdkgdchwlcykcc0000gn/T//cc0laMba.s:284    .text.MX_TIM1_Init:0000000000000000 MX_TIM1_Init
/var/folders/cb/0rfcg7_d4zbdkgdchwlcykcc0000gn/T//cc0laMba.s:405    .text.MX_TIM1_Init:0000000000000078 $d
                            *COM*:0000000000000040 htim1
/var/folders/cb/0rfcg7_d4zbdkgdchwlcykcc0000gn/T//cc0laMba.s:411    .text.MX_TIM8_Init:0000000000000000 $t
/var/folders/cb/0rfcg7_d4zbdkgdchwlcykcc0000gn/T//cc0laMba.s:417    .text.MX_TIM8_Init:0000000000000000 MX_TIM8_Init
/var/folders/cb/0rfcg7_d4zbdkgdchwlcykcc0000gn/T//cc0laMba.s:586    .text.MX_TIM8_Init:00000000000000a8 $d
                            *COM*:0000000000000040 htim8
/var/folders/cb/0rfcg7_d4zbdkgdchwlcykcc0000gn/T//cc0laMba.s:592    .text.MX_USART2_UART_Init:0000000000000000 $t
/var/folders/cb/0rfcg7_d4zbdkgdchwlcykcc0000gn/T//cc0laMba.s:598    .text.MX_USART2_UART_Init:0000000000000000 MX_USART2_UART_Init
/var/folders/cb/0rfcg7_d4zbdkgdchwlcykcc0000gn/T//cc0laMba.s:647    .text.MX_USART2_UART_Init:0000000000000024 $d
                            *COM*:0000000000000040 huart2
/var/folders/cb/0rfcg7_d4zbdkgdchwlcykcc0000gn/T//cc0laMba.s:653    .text.MX_USART3_UART_Init:0000000000000000 $t
/var/folders/cb/0rfcg7_d4zbdkgdchwlcykcc0000gn/T//cc0laMba.s:659    .text.MX_USART3_UART_Init:0000000000000000 MX_USART3_UART_Init
/var/folders/cb/0rfcg7_d4zbdkgdchwlcykcc0000gn/T//cc0laMba.s:708    .text.MX_USART3_UART_Init:0000000000000024 $d
                            *COM*:0000000000000040 huart3
/var/folders/cb/0rfcg7_d4zbdkgdchwlcykcc0000gn/T//cc0laMba.s:714    .text.SystemClock_Config:0000000000000000 $t
/var/folders/cb/0rfcg7_d4zbdkgdchwlcykcc0000gn/T//cc0laMba.s:721    .text.SystemClock_Config:0000000000000000 SystemClock_Config
/var/folders/cb/0rfcg7_d4zbdkgdchwlcykcc0000gn/T//cc0laMba.s:853    .text.SystemClock_Config:000000000000008c $d
/var/folders/cb/0rfcg7_d4zbdkgdchwlcykcc0000gn/T//cc0laMba.s:859    .rodata.main.str1.4:0000000000000000 $d
/var/folders/cb/0rfcg7_d4zbdkgdchwlcykcc0000gn/T//cc0laMba.s:863    .text.main:0000000000000000 $t
/var/folders/cb/0rfcg7_d4zbdkgdchwlcykcc0000gn/T//cc0laMba.s:870    .text.main:0000000000000000 main
/var/folders/cb/0rfcg7_d4zbdkgdchwlcykcc0000gn/T//cc0laMba.s:993    .text.main:0000000000000098 $d
/var/folders/cb/0rfcg7_d4zbdkgdchwlcykcc0000gn/T//cc0laMba.s:998    .text.Error_Handler:0000000000000000 $t
/var/folders/cb/0rfcg7_d4zbdkgdchwlcykcc0000gn/T//cc0laMba.s:1005   .text.Error_Handler:0000000000000000 Error_Handler

UNDEFINED SYMBOLS
HAL_I2C_Init
HAL_TIM_IC_Init
HAL_TIMEx_MasterConfigSynchronization
HAL_TIM_IC_ConfigChannel
memset
HAL_TIM_PWM_Init
HAL_TIM_PWM_ConfigChannel
HAL_TIMEx_ConfigBreakDeadTime
HAL_TIM_MspPostInit
HAL_UART_Init
HAL_RCC_OscConfig
HAL_RCC_ClockConfig
HAL_Init
bsp_OLED_Init
bsp_OLED_ON
bsp_OLED_CLR
sprintf
ARM GAS  /var/folders/cb/0rfcg7_d4zbdkgdchwlcykcc0000gn/T//cc0laMba.s 			page 34


bsp_OLED_ShowStr
